Certificate:
    Data:
        Version: 3 (0x2)
        Serial Number:
            d3:99:bf:93:1f:d4:ad:d3:dc:a5:2c:6c:cf:7d:82:c5
        Signature Algorithm: sha256WithRSAEncryption
        Issuer: C=GB, O=Example, CN=Root CA
        Validity
            Not Before: Jul 21 08:39:06 2021 GMT
            Not After : Jul 19 08:39:06 2031 GMT
        Subject: C=GB, O=Example, CN=Root CA
        Subject Public Key Info:
            Public Key Algorithm: rsaEncryption
                RSA Public-Key: (4096 bit)
                Modulus:
                    00:c9:e3:5e:f1:9c:63:c6:67:6e:a1:6f:8b:06:83:
                    66:9f:66:45:19:65:97:13:c1:10:6b:47:93:42:e5:
                    7c:22:f5:c7:bf:ed:22:a3:85:56:ee:20:a2:8f:76:
                    d0:26:72:e4:45:f0:94:37:6c:87:94:c8:1f:da:b5:
                    a3:09:4e:f3:b8:33:14:d1:cc:ca:2b:b0:44:c6:03:
                    98:2c:30:51:9b:33:af:2d:2b:7e:cf:84:a8:0d:d3:
                    35:c5:d5:5c:ee:85:69:42:90:22:97:ce:c2:99:67:
                    fe:86:cb:61:c1:00:5b:52:53:d5:66:f0:79:c7:d0:
                    7a:47:95:82:0a:7a:dc:6b:55:29:93:1e:1c:ca:e8:
                    74:f8:94:b6:e3:93:f3:7f:e0:b7:bd:55:b7:1c:4d:
                    42:df:81:d3:d8:17:9b:d0:2d:8a:b8:5b:b8:73:e6:
                    c1:fc:b8:0c:a9:f5:4d:d9:9d:b6:fc:1a:d2:52:30:
                    ee:6f:3f:39:b9:65:bc:06:2d:06:cf:42:1c:32:17:
                    12:69:09:c4:83:ad:05:d7:42:fe:26:7a:2e:67:42:
                    ad:1e:25:9d:00:b3:3c:4c:60:0d:75:ca:3a:2c:53:
                    fb:fb:5d:5d:3a:83:d0:bc:53:d0:62:f9:cd:b5:9d:
                    b1:7d:6f:ad:81:cb:80:5f:95:86:5f:67:31:59:10:
                    03:3f:01:ae:17:3c:87:e9:9c:7a:b5:65:24:f9:2c:
                    d3:93:44:c2:6d:bc:01:36:16:3a:6f:0e:68:ca:ff:
                    ba:37:5e:f2:f6:ca:f7:21:cc:e5:79:55:92:e7:42:
                    92:46:24:dd:9f:4e:34:21:c6:56:c7:14:86:bc:72:
                    f2:ef:3d:e6:55:22:b3:c8:76:16:8b:72:62:19:ad:
                    e4:48:72:0c:04:1d:49:ec:75:dc:9b:c3:47:03:fa:
                    eb:f8:f2:24:f9:a4:00:9b:b0:ea:ff:68:1e:0e:ac:
                    7b:c9:b0:be:e7:ba:9e:4a:07:62:fd:f6:61:7d:bd:
                    82:c9:3b:58:38:51:de:c9:fc:b7:36:e2:15:84:cd:
                    54:36:2d:52:93:8d:aa:e4:da:ff:ef:10:43:7e:24:
                    99:23:30:60:58:5b:79:54:74:28:45:f7:a1:2b:ec:
                    56:d4:c8:2a:95:91:1c:a2:d8:ce:02:1c:25:25:19:
                    3b:32:21:48:e4:93:e9:ac:ec:fe:ff:f8:b6:11:a5:
                    10:93:5c:b8:70:f2:97:9c:1f:ec:ab:62:e5:5e:ac:
                    c6:49:dc:d5:d3:8f:84:bd:95:d6:ac:01:2f:5b:92:
                    f6:db:5b:45:b2:71:f0:fb:0b:31:74:e4:0e:99:d7:
                    30:81:50:39:70:e7:4b:a1:f6:6b:5e:88:1e:f5:d1:
                    1e:3d:3f
                Exponent: 65537 (0x10001)
        X509v3 extensions:
            X509v3 Basic Constraints: critical
                CA:TRUE
            X509v3 Key Usage: critical
                Certificate Sign, CRL Sign
            X509v3 Subject Key Identifier: 
                06:32:44:9D:9C:C1:56:88:CE:CF:DF:92:EC:6A:A7:56:AE:0E:9E:E8
    Signature Algorithm: sha256WithRSAEncryption
         21:67:fa:90:d1:31:73:18:f5:91:8e:95:27:e1:d7:13:a4:93:
         86:ed:d4:fb:f4:6e:7e:bf:a0:6e:fc:6e:8c:75:22:9e:08:22:
         f7:26:91:f3:31:4f:60:f3:82:4f:38:65:19:40:db:63:4c:d1:
         4d:60:02:cd:20:02:63:83:32:68:4c:92:63:ea:78:4f:3e:41:
         1a:8d:d2:f1:c5:28:e6:7d:b1:37:7b:4b:c4:bc:7f:45:0a:3f:
         9e:ff:ce:cb:c6:c9:2e:4c:5f:9e:60:20:1b:a4:7b:33:cc:45:
         8e:da:90:f3:c4:b2:a8:fe:20:3e:5e:f4:f7:a0:3a:84:ed:9b:
         6d:c0:40:ee:88:82:7b:87:2b:e6:c4:8e:bc:07:27:ee:1b:c1:
         06:17:a2:e0:b9:37:70:b3:b1:fd:da:29:57:90:82:c7:c7:88:
         b6:09:1d:e3:8c:9b:e6:20:75:9e:b7:61:eb:f9:91:2c:12:9c:
         93:c5:5d:27:41:a9:85:c9:3f:32:6b:19:8a:e3:84:c2:a3:94:
         9b:c4:96:f2:cf:bb:79:5e:0b:2a:2f:f3:de:ab:d4:4f:37:f9:
         e4:32:5f:d6:18:9b:3b:8b:96:66:1a:ae:93:c7:e3:f7:4d:69:
         5b:cc:01:f9:2d:07:00:3e:b6:6d:88:da:8c:29:3b:64:b1:6f:
         50:c7:d9:1e:79:f7:71:b8:19:d0:59:9e:f8:20:fb:7e:c2:cf:
         61:8d:69:8b:87:f1:ae:7c:99:8e:b8:e9:04:24:eb:1d:eb:77:
         61:01:76:58:24:2d:31:84:c4:13:69:28:f2:21:25:ee:60:ed:
         96:e4:9d:81:6e:24:53:cf:a6:55:75:87:00:e9:cf:e7:ac:ca:
         24:74:85:da:7a:a1:61:16:4b:47:51:85:59:32:da:91:ec:04:
         62:35:eb:96:80:c5:46:77:d2:ef:f2:1f:fe:c5:27:d2:dc:a5:
         58:99:af:b0:1d:b4:09:57:c4:03:88:de:bb:7d:90:a0:5b:59:
         f6:14:a7:79:5d:4c:f7:74:86:46:9d:e9:be:cb:64:31:a9:2e:
         a5:11:7e:de:52:02:b3:f6:f3:0e:48:5c:14:45:2d:2a:8a:b0:
         2c:f7:b1:65:0b:3e:90:84:50:92:1a:77:2c:ce:07:2c:8e:e9:
         3f:d2:76:d2:2f:cd:52:14:dc:84:19:d7:b8:12:7d:87:3c:13:
         78:57:dd:aa:0f:f3:43:5a:1e:ac:de:00:26:8e:87:73:5b:5d:
         19:98:22:2e:fc:e8:6e:9a:f9:48:d3:0e:2f:ec:26:02:e1:58:
         2b:0a:59:47:88:b6:22:72:18:59:bf:bd:dc:85:92:04:d9:54:
         28:5a:34:c5:4a:f2:aa:f2
-----BEGIN CERTIFICATE-----
MIIFLzCCAxegAwIBAgIRANOZv5Mf1K3T3KUsbM99gsUwDQYJKoZIhvcNAQELBQAw
MTELMAkGA1UEBhMCR0IxEDAOBgNVBAoMB0V4YW1wbGUxEDAOBgNVBAMMB1Jvb3Qg
Q0EwHhcNMjEwNzIxMDgzOTA2WhcNMzEwNzE5MDgzOTA2WjAxMQswCQYDVQQGEwJH
QjEQMA4GA1UECgwHRXhhbXBsZTEQMA4GA1UEAwwHUm9vdCBDQTCCAiIwDQYJKoZI
hvcNAQEBBQADggIPADCCAgoCggIBAMnjXvGcY8ZnbqFviwaDZp9mRRlllxPBEGtH
k0LlfCL1x7/tIqOFVu4goo920CZy5EXwlDdsh5TIH9q1owlO87gzFNHMyiuwRMYD
mCwwUZszry0rfs+EqA3TNcXVXO6FaUKQIpfOwpln/obLYcEAW1JT1WbwecfQekeV
ggp63GtVKZMeHMrodPiUtuOT83/gt71VtxxNQt+B09gXm9AtirhbuHPmwfy4DKn1
Tdmdtvwa0lIw7m8/ObllvAYtBs9CHDIXEmkJxIOtBddC/iZ6LmdCrR4lnQCzPExg
DXXKOixT+/tdXTqD0LxT0GL5zbWdsX1vrYHLgF+Vhl9nMVkQAz8Brhc8h+mcerVl
JPks05NEwm28ATYWOm8OaMr/ujde8vbK9yHM5XlVkudCkkYk3Z9ONCHGVscUhrxy
8u895lUis8h2FotyYhmt5EhyDAQdSex13JvDRwP66/jyJPmkAJuw6v9oHg6se8mw
vue6nkoHYv32YX29gsk7WDhR3sn8tzbiFYTNVDYtUpONquTa/+8QQ34kmSMwYFhb
eVR0KEX3oSvsVtTIKpWRHKLYzgIcJSUZOzIhSOST6azs/v/4thGlEJNcuHDyl5wf
7Kti5V6sxknc1dOPhL2V1qwBL1uS9ttbRbJx8PsLMXTkDpnXMIFQOXDnS6H2a16I
HvXRHj0/AgMBAAGjQjBAMA8GA1UdEwEB/wQFMAMBAf8wDgYDVR0PAQH/BAQDAgEG
MB0GA1UdDgQWBBQGMkSdnMFWiM7P35LsaqdWrg6e6DANBgkqhkiG9w0BAQsFAAOC
AgEAIWf6kNExcxj1kY6VJ+HXE6SThu3U+/Rufr+gbvxujHUinggi9yaR8zFPYPOC
TzhlGUDbY0zRTWACzSACY4MyaEySY+p4Tz5BGo3S8cUo5n2xN3tLxLx/RQo/nv/O
y8bJLkxfnmAgG6R7M8xFjtqQ88SyqP4gPl7096A6hO2bbcBA7oiCe4cr5sSOvAcn
7hvBBhei4Lk3cLOx/dopV5CCx8eItgkd44yb5iB1nrdh6/mRLBKck8VdJ0Gphck/
MmsZiuOEwqOUm8SW8s+7eV4LKi/z3qvUTzf55DJf1hibO4uWZhquk8fj901pW8wB
+S0HAD62bYjajCk7ZLFvUMfZHnn3cbgZ0Fme+CD7fsLPYY1pi4fxrnyZjrjpBCTr
Het3YQF2WCQtMYTEE2ko8iEl7mDtluSdgW4kU8+mVXWHAOnP56zKJHSF2nqhYRZL
R1GFWTLakewEYjXrloDFRnfS7/If/sUn0tylWJmvsB20CVfEA4jeu32QoFtZ9hSn
eV1M93SGRp3pvstkMakupRF+3lICs/bzDkhcFEUtKoqwLPexZQs+kIRQkhp3LM4H
LI7pP9J20i/NUhTchBnXuBJ9hzwTeFfdqg/zQ1oerN4AJo6Hc1tdGZgiLvzobpr5
SNMOL+wmAuFYKwpZR4i2InIYWb+93IWSBNlUKFo0xUryqvI=
-----END CERTIFICATE-----
