Certificate:
    Data:
        Version: 3 (0x2)
        Serial Number:
            d3:99:bf:93:1f:d4:ad:d3:dc:a5:2c:6c:cf:7d:82:c6
        Signature Algorithm: sha256WithRSAEncryption
        Issuer: C=GB, O=Example, CN=Root CA
        Validity
            Not Before: Jul 27 09:31:44 2021 GMT
            Not After : Jul 25 09:31:44 2031 GMT
        Subject: C=GB, O=Example, CN=Sub CA
        Subject Public Key Info:
            Public Key Algorithm: rsaEncryption
                RSA Public-Key: (2048 bit)
                Modulus:
                    00:bd:a1:ab:ba:5b:d5:56:44:9a:c7:a5:7d:d6:e6:
                    6b:92:7d:96:a4:a8:52:9e:55:b9:b3:3a:52:b0:2a:
                    47:0d:60:9b:dd:61:90:dc:3c:99:4a:7b:4e:96:a2:
                    20:a4:3c:bf:67:24:2f:44:15:88:d4:16:8b:32:ff:
                    19:57:8d:9d:cc:90:79:a0:7f:33:c1:49:e4:9e:26:
                    ff:64:02:00:85:db:90:6b:a5:cc:32:cb:fd:83:bd:
                    38:64:4f:ba:01:80:4a:7e:61:89:bc:29:64:d3:64:
                    61:31:3b:18:80:51:40:64:c2:4d:82:82:6c:c5:cf:
                    3f:2b:f7:14:a8:e9:8f:6b:99:da:a9:3a:f9:4d:d8:
                    e4:b9:22:53:82:24:6d:0f:58:c3:c4:4d:29:e3:c6:
                    85:f9:40:93:87:ae:ef:6e:b4:35:8c:9c:e4:28:d8:
                    b0:e0:bb:da:74:59:84:19:54:86:9e:29:12:9e:b2:
                    f5:a3:0f:d9:a2:d9:73:c2:1e:78:85:b0:ff:a8:33:
                    85:a9:eb:15:f6:82:e8:f8:3d:a2:5c:5a:7b:de:f3:
                    f0:16:3b:f5:a1:15:5f:5c:0e:06:51:c9:0b:89:30:
                    3e:81:2c:9e:c9:f6:6e:2f:7f:e0:d5:26:3b:8b:5a:
                    58:64:ab:93:f9:ed:bb:2b:82:3b:4e:93:75:aa:77:
                    08:e3
                Exponent: 65537 (0x10001)
        X509v3 extensions:
            Authority Information Access: 
                CA Issuers - URI:http://root-ca.example.com/root-ca.crt
                OCSP - URI:http://ocsp.root-ca.example.com:9080

            X509v3 Authority Key Identifier: 
                keyid:06:32:44:9D:9C:C1:56:88:CE:CF:DF:92:EC:6A:A7:56:AE:0E:9E:E8

            X509v3 Basic Constraints: critical
                CA:TRUE, pathlen:0
            X509v3 CRL Distribution Points: 

                Full Name:
                  URI:http://root-ca.example.com/root-ca.crl

            X509v3 Extended Key Usage: 
                TLS Web Client Authentication, TLS Web Server Authentication
            X509v3 Key Usage: critical
                Certificate Sign, CRL Sign
            X509v3 Name Constraints: 
                Permitted:
                  DNS:example.com
                  DNS:example.org
                Excluded:
                  IP:0.0.0.0/0.0.0.0
                  IP:0:0:0:0:0:0:0:0/0:0:0:0:0:0:0:0

            X509v3 Subject Key Identifier: 
                9F:C7:9B:99:0A:A3:F8:FA:14:1B:26:7E:05:FC:C5:00:E0:6B:9F:22
    Signature Algorithm: sha256WithRSAEncryption
         10:e5:5c:44:01:93:60:bf:4b:13:dc:aa:2f:5b:68:ff:28:c0:
         c7:8c:28:64:67:68:af:73:d0:1e:3f:2d:e5:e4:8c:36:76:3c:
         27:10:b5:cd:16:75:b8:58:31:51:12:92:56:b3:3c:57:a6:e4:
         dc:97:0c:9e:7e:96:28:fa:87:fe:ed:45:f1:47:14:59:fa:e5:
         b3:b2:62:7a:b5:f6:dc:a2:55:16:57:be:13:86:13:83:9f:c0:
         f4:5f:05:47:d1:a7:b0:77:10:13:65:27:9f:36:09:f3:34:87:
         5d:ff:e5:dd:f8:8b:d4:a0:24:1f:9e:c2:64:27:e1:dc:2c:71:
         2c:41:13:77:a4:65:1c:27:2a:65:80:59:bb:c7:b3:4a:c0:d3:
         e1:bb:e8:1e:90:4a:7e:88:06:c5:b2:9e:2f:a8:44:50:82:59:
         1d:00:6c:ab:f7:97:e7:c0:8e:64:f7:19:b2:e3:05:e0:97:06:
         85:36:40:3e:25:51:de:a2:1d:56:6f:c3:0f:73:62:22:ef:f9:
         8b:1d:78:dd:6f:bc:39:ec:6d:af:f4:77:90:d7:a7:75:b8:e3:
         07:15:88:d2:0d:58:3e:f7:d5:5a:39:af:06:89:65:03:42:32:
         73:02:17:b4:b4:cb:59:c3:50:b6:f3:70:87:bd:87:c0:ee:f6:
         cf:fe:27:af:23:84:41:38:19:da:fd:e7:15:ca:86:6b:94:41:
         22:4e:4c:cc:5d:ca:4e:f8:a7:81:57:c5:44:ea:1e:ec:23:d8:
         92:b0:9e:83:52:47:2a:31:4b:c8:5c:fa:a2:9d:73:7b:71:2d:
         28:09:de:83:a1:e3:2d:7d:8b:25:0c:94:dd:03:69:91:43:b0:
         c6:90:e9:0a:84:47:b8:7a:41:bc:17:7b:48:bd:6c:44:6c:f2:
         a8:b9:63:cd:eb:31:40:e7:69:b2:87:8e:32:f1:42:6e:67:d7:
         c8:c3:77:16:07:a0:7a:cc:1a:06:2f:9e:24:96:fe:92:cf:72:
         6c:a7:f9:0e:e9:7e:38:4b:44:dd:e6:5d:04:11:15:e9:ed:6c:
         7f:26:c5:c7:e8:2a:11:01:8d:ba:42:69:1f:ce:ca:15:d7:9a:
         99:b9:c8:9c:20:5f:77:a4:27:23:b6:25:45:ab:d0:5d:51:1e:
         34:6d:51:ed:1d:28:9d:3f:50:8c:a3:5d:9d:4e:25:1f:11:7a:
         a2:c5:fa:92:3f:62:08:1d:3b:5c:a3:29:63:0d:94:d1:d0:16:
         8e:aa:a8:6c:29:65:8a:be:31:08:71:05:ad:42:e7:0d:4d:c3:
         1f:c0:14:3c:3a:5c:3e:79:b5:44:d2:90:80:60:3b:88:14:a3:
         11:e6:1c:39:c4:7b:bc:80
-----BEGIN CERTIFICATE-----
MIIFgTCCA2mgAwIBAgIRANOZv5Mf1K3T3KUsbM99gsYwDQYJKoZIhvcNAQELBQAw
MTELMAkGA1UEBhMCR0IxEDAOBgNVBAoMB0V4YW1wbGUxEDAOBgNVBAMMB1Jvb3Qg
Q0EwHhcNMjEwNzI3MDkzMTQ0WhcNMzEwNzI1MDkzMTQ0WjAwMQswCQYDVQQGEwJH
QjEQMA4GA1UECgwHRXhhbXBsZTEPMA0GA1UEAwwGU3ViIENBMIIBIjANBgkqhkiG
9w0BAQEFAAOCAQ8AMIIBCgKCAQEAvaGrulvVVkSax6V91uZrkn2WpKhSnlW5szpS
sCpHDWCb3WGQ3DyZSntOlqIgpDy/ZyQvRBWI1BaLMv8ZV42dzJB5oH8zwUnknib/
ZAIAhduQa6XMMsv9g704ZE+6AYBKfmGJvClk02RhMTsYgFFAZMJNgoJsxc8/K/cU
qOmPa5naqTr5TdjkuSJTgiRtD1jDxE0p48aF+UCTh67vbrQ1jJzkKNiw4LvadFmE
GVSGnikSnrL1ow/Zotlzwh54hbD/qDOFqesV9oLo+D2iXFp73vPwFjv1oRVfXA4G
UckLiTA+gSyeyfZuL3/g1SY7i1pYZKuT+e27K4I7TpN1qncI4wIDAQABo4IBkzCC
AY8wdAYIKwYBBQUHAQEEaDBmMDIGCCsGAQUFBzAChiZodHRwOi8vcm9vdC1jYS5l
eGFtcGxlLmNvbS9yb290LWNhLmNydDAwBggrBgEFBQcwAYYkaHR0cDovL29jc3Au
cm9vdC1jYS5leGFtcGxlLmNvbTo5MDgwMB8GA1UdIwQYMBaAFAYyRJ2cwVaIzs/f
kuxqp1auDp7oMBIGA1UdEwEB/wQIMAYBAf8CAQAwNwYDVR0fBDAwLjAsoCqgKIYm
aHR0cDovL3Jvb3QtY2EuZXhhbXBsZS5jb20vcm9vdC1jYS5jcmwwHQYDVR0lBBYw
FAYIKwYBBQUHAwIGCCsGAQUFBwMBMA4GA1UdDwEB/wQEAwIBBjBbBgNVHR4EVDBS
oB4wDYILZXhhbXBsZS5jb20wDYILZXhhbXBsZS5vcmehMDAKhwgAAAAAAAAAADAi
hyAAAAAAAAAAAAAAAAAAAAAAAAAAAAAAAAAAAAAAAAAAADAdBgNVHQ4EFgQUn8eb
mQqj+PoUGyZ+BfzFAOBrnyIwDQYJKoZIhvcNAQELBQADggIBABDlXEQBk2C/SxPc
qi9baP8owMeMKGRnaK9z0B4/LeXkjDZ2PCcQtc0WdbhYMVESklazPFem5NyXDJ5+
lij6h/7tRfFHFFn65bOyYnq19tyiVRZXvhOGE4OfwPRfBUfRp7B3EBNlJ582CfM0
h13/5d34i9SgJB+ewmQn4dwscSxBE3ekZRwnKmWAWbvHs0rA0+G76B6QSn6IBsWy
ni+oRFCCWR0AbKv3l+fAjmT3GbLjBeCXBoU2QD4lUd6iHVZvww9zYiLv+YsdeN1v
vDnsba/0d5DXp3W44wcViNINWD731Vo5rwaJZQNCMnMCF7S0y1nDULbzcIe9h8Du
9s/+J68jhEE4Gdr95xXKhmuUQSJOTMxdyk74p4FXxUTqHuwj2JKwnoNSRyoxS8hc
+qKdc3txLSgJ3oOh4y19iyUMlN0DaZFDsMaQ6QqER7h6QbwXe0i9bERs8qi5Y83r
MUDnabKHjjLxQm5n18jDdxYHoHrMGgYvniSW/pLPcmyn+Q7pfjhLRN3mXQQRFent
bH8mxcfoKhEBjbpCaR/OyhXXmpm5yJwgX3ekJyO2JUWr0F1RHjRtUe0dKJ0/UIyj
XZ1OJR8ReqLF+pI/YggdO1yjKWMNlNHQFo6qqGwpZYq+MQhxBa1C5w1Nwx/AFDw6
XD55tUTSkIBgO4gUoxHmHDnEe7yA
-----END CERTIFICATE-----
