Certificate:
    Data:
        Version: 3 (0x2)
        Serial Number:
            d3:99:bf:93:1f:d4:ad:d3:dc:a5:2c:6c:cf:7d:82:c8
        Signature Algorithm: sha256WithRSAEncryption
        Issuer: C=GB, O=Example, CN=Sub CA
        Validity
            Not Before: Jul 28 02:30:20 2021 GMT
            Not After : Jul 28 02:30:20 2022 GMT
        Subject: C=GB, O=Example, CN=www.example.com/emailAddress=test@chinatelecom.cn
        Subject Public Key Info:
            Public Key Algorithm: rsaEncryption
                RSA Public-Key: (2048 bit)
                Modulus:
                    00:d2:92:00:b0:63:1a:2a:29:26:ed:b8:67:71:45:
                    6e:39:41:d7:41:1c:f1:5c:54:38:b8:05:45:ac:f3:
                    db:3b:2f:bc:c5:ce:28:fb:ed:3a:25:dc:cb:6e:28:
                    dc:d2:00:8f:5a:a4:48:53:68:1c:ce:8c:11:0f:d8:
                    a8:b4:ab:fc:f4:7e:8b:35:f4:85:83:71:6f:5c:00:
                    84:1e:80:e0:bc:e8:bd:77:33:4d:49:6f:d4:41:c8:
                    f6:61:ec:8f:88:56:14:16:11:0b:52:c5:1f:6b:e9:
                    8a:fa:c0:c8:36:2c:fd:d9:a0:f8:5a:a8:b4:b3:2e:
                    1a:5d:38:b4:89:fb:a2:f0:35:41:84:0c:0b:6a:92:
                    6a:1e:d4:d5:40:62:c5:0f:f2:8a:be:f6:77:2b:39:
                    89:9e:3f:e0:09:b4:31:2b:d3:71:16:65:12:76:2a:
                    bf:3b:8d:c8:2d:20:30:a1:dc:4c:0b:a7:82:dc:72:
                    1b:0f:f3:94:fb:7c:d7:64:24:4a:a9:2b:51:a9:e1:
                    7b:da:75:4e:43:67:d3:25:07:67:d1:7f:05:f8:fe:
                    ee:01:4c:49:87:88:37:bc:63:e5:5f:20:54:8f:0b:
                    c5:41:60:fd:30:85:2e:05:62:ee:7d:d2:97:9b:7e:
                    0b:17:33:5b:d6:33:f5:07:4c:74:13:2d:3b:ec:b0:
                    a1:79
                Exponent: 65537 (0x10001)
        X509v3 extensions:
            Authority Information Access: 
                CA Issuers - URI:http://sub-ca.example.com/sub-ca.crt
                OCSP - URI:http://ocsp.sub-ca.example.com:9081

            X509v3 Authority Key Identifier: 
                keyid:9F:C7:9B:99:0A:A3:F8:FA:14:1B:26:7E:05:FC:C5:00:E0:6B:9F:22

            X509v3 Basic Constraints: critical
                CA:FALSE
            X509v3 CRL Distribution Points: 

                Full Name:
                  URI:http://sub-ca.example.com/sub-ca.crl

            X509v3 Extended Key Usage: 
                TLS Web Client Authentication, TLS Web Server Authentication
            X509v3 Key Usage: critical
                Digital Signature, Key Encipherment
            X509v3 Subject Key Identifier: 
                D3:1D:D4:25:94:76:5F:A9:25:ED:B0:08:A2:1F:70:36:04:B3:32:C4
            X509v3 Subject Alternative Name: 
                DNS:www.example.com, DNS:example.com
    Signature Algorithm: sha256WithRSAEncryption
         bb:3c:77:08:cb:aa:52:c7:93:6b:6b:df:2a:a7:c0:60:38:e1:
         c6:68:ed:4b:49:5a:00:9e:49:a8:09:f4:8a:ab:d8:fd:54:d9:
         b5:46:91:76:39:ce:a7:4f:6e:79:a5:9c:e2:a5:7d:f5:a0:61:
         31:00:7c:42:b7:46:66:90:b4:20:94:d5:bf:d5:77:56:18:86:
         f4:45:59:0d:00:6a:a2:2d:c6:25:b9:1b:0a:d2:0e:25:8a:4d:
         61:d4:29:c7:b2:6d:8b:37:05:90:ed:00:4a:de:d9:b3:91:8c:
         00:46:54:11:68:c5:44:d6:c0:51:6c:e5:aa:e5:dd:00:89:24:
         71:e3:bd:5d:12:fa:f6:6b:b9:55:ff:76:24:a9:e4:cf:b2:55:
         6d:82:a0:68:4f:2c:8b:3e:d3:03:13:04:46:fd:e7:41:5f:b4:
         18:52:59:f3:8c:2a:14:79:87:6f:13:f0:bf:f6:22:b2:fd:ad:
         b6:63:d2:0e:d7:0e:6d:a0:53:b2:e3:58:cd:ee:d2:ed:d7:4a:
         8e:ed:a9:3f:15:d8:e5:db:46:28:ce:65:ba:52:c7:98:6c:73:
         05:35:82:4d:3f:b8:1b:92:3c:2c:03:43:2e:45:9c:68:20:c6:
         6a:f3:cb:18:98:12:f0:2c:13:1c:9b:39:33:e2:b3:b4:b1:4d:
         25:9d:a6:58
-----BEGIN CERTIFICATE-----
MIIEbzCCA1egAwIBAgIRANOZv5Mf1K3T3KUsbM99gsgwDQYJKoZIhvcNAQELBQAw
MDELMAkGA1UEBhMCR0IxEDAOBgNVBAoMB0V4YW1wbGUxDzANBgNVBAMMBlN1YiBD
QTAeFw0yMTA3MjgwMjMwMjBaFw0yMjA3MjgwMjMwMjBaMF4xCzAJBgNVBAYTAkdC
MRAwDgYDVQQKDAdFeGFtcGxlMRgwFgYDVQQDDA93d3cuZXhhbXBsZS5jb20xIzAh
BgkqhkiG9w0BCQEWFHRlc3RAY2hpbmF0ZWxlY29tLmNuMIIBIjANBgkqhkiG9w0B
AQEFAAOCAQ8AMIIBCgKCAQEA0pIAsGMaKikm7bhncUVuOUHXQRzxXFQ4uAVFrPPb
Oy+8xc4o++06JdzLbijc0gCPWqRIU2gczowRD9iotKv89H6LNfSFg3FvXACEHoDg
vOi9dzNNSW/UQcj2YeyPiFYUFhELUsUfa+mK+sDINiz92aD4Wqi0sy4aXTi0ifui
8DVBhAwLapJqHtTVQGLFD/KKvvZ3KzmJnj/gCbQxK9NxFmUSdiq/O43ILSAwodxM
C6eC3HIbD/OU+3zXZCRKqStRqeF72nVOQ2fTJQdn0X8F+P7uAUxJh4g3vGPlXyBU
jwvFQWD9MIUuBWLufdKXm34LFzNb1jP1B0x0Ey077LCheQIDAQABo4IBVDCCAVAw
cQYIKwYBBQUHAQEEZTBjMDAGCCsGAQUFBzAChiRodHRwOi8vc3ViLWNhLmV4YW1w
bGUuY29tL3N1Yi1jYS5jcnQwLwYIKwYBBQUHMAGGI2h0dHA6Ly9vY3NwLnN1Yi1j
YS5leGFtcGxlLmNvbTo5MDgxMB8GA1UdIwQYMBaAFJ/Hm5kKo/j6FBsmfgX8xQDg
a58iMAwGA1UdEwEB/wQCMAAwNQYDVR0fBC4wLDAqoCigJoYkaHR0cDovL3N1Yi1j
YS5leGFtcGxlLmNvbS9zdWItY2EuY3JsMB0GA1UdJQQWMBQGCCsGAQUFBwMCBggr
BgEFBQcDATAOBgNVHQ8BAf8EBAMCBaAwHQYDVR0OBBYEFNMd1CWUdl+pJe2wCKIf
cDYEszLEMCcGA1UdEQQgMB6CD3d3dy5leGFtcGxlLmNvbYILZXhhbXBsZS5jb20w
DQYJKoZIhvcNAQELBQADggEBALs8dwjLqlLHk2tr3yqnwGA44cZo7UtJWgCeSagJ
9Iqr2P1U2bVGkXY5zqdPbnmlnOKlffWgYTEAfEK3RmaQtCCU1b/Vd1YYhvRFWQ0A
aqItxiW5GwrSDiWKTWHUKceybYs3BZDtAEre2bORjABGVBFoxUTWwFFs5arl3QCJ
JHHjvV0S+vZruVX/diSp5M+yVW2CoGhPLIs+0wMTBEb950FftBhSWfOMKhR5h28T
8L/2IrL9rbZj0g7XDm2gU7LjWM3u0u3XSo7tqT8V2OXbRijOZbpSx5hscwU1gk0/
uBuSPCwDQy5FnGggxmrzyxiYEvAsExybOTPis7SxTSWdplg=
-----END CERTIFICATE-----
