Certificate:
    Data:
        Version: 3 (0x2)
        Serial Number:
            25:6e:91:fb:48:b9:e4:56:4c:39:01:42:60:c8:82:4e
    Signature Algorithm: sha256WithRSAEncryption
        Issuer: C=CN, O=orzrz, CN=Root CA
        Validity
            Not Before: Dec  7 06:23:29 2021 GMT
            Not After : Dec  5 06:23:29 2031 GMT
        Subject: C=CN, O=orzrz, CN=www.rsa-example.com/emailAddress=test@orzrz.com
        Subject Public Key Info:
            Public Key Algorithm: rsaEncryption
                Public-Key: (2048 bit)
                Modulus:
                    00:d0:cd:73:23:91:4c:79:4a:35:12:8f:0b:ad:7f:
                    f8:4b:dc:ff:6d:84:01:5d:16:b7:8f:a6:79:76:4d:
                    96:40:16:d2:8d:e7:15:d1:4b:61:85:77:d7:58:9e:
                    9e:79:93:ba:8b:3e:43:26:41:44:ee:72:64:ce:a3:
                    a7:46:10:22:87:32:64:24:c9:fa:1e:53:5c:98:fb:
                    8c:02:41:35:2b:24:5c:5a:ec:e1:38:f7:42:c8:41:
                    ab:60:05:ac:cb:66:28:91:e6:82:8c:c1:97:f3:1f:
                    e5:4f:8c:f5:7a:77:45:4b:d0:89:0a:5f:47:d4:f1:
                    04:18:c8:c0:66:95:05:99:83:78:2b:6c:c9:10:f2:
                    a3:9f:ad:8f:e6:bc:1d:d3:17:6b:55:ec:1a:99:83:
                    2b:a4:82:2d:8c:a1:eb:ec:23:41:7c:be:64:d9:ae:
                    0a:ba:b0:b2:38:68:9b:52:17:8c:29:60:ec:eb:63:
                    03:11:ab:bc:3a:c0:64:03:5f:e8:21:50:1d:1d:fe:
                    80:83:c6:00:8e:f8:2a:82:42:4a:c6:92:92:c0:79:
                    3c:05:9d:b1:97:8d:32:7b:3d:f7:f3:db:fa:16:aa:
                    a7:8e:04:6e:8b:d6:24:69:9d:9d:f7:07:c6:db:d7:
                    c0:be:b7:f7:3f:b8:a8:35:ae:1e:06:36:91:bd:44:
                    48:b7
                Exponent: 65537 (0x10001)
        X509v3 extensions:
            Authority Information Access: 
                CA Issuers - URI:http://rsa-sub-ca.orzrz.com/rsa-sub-ca.crt
                OCSP - URI:http://ocsp.rsa-sub-ca.orzrz.com:9081

            X509v3 Authority Key Identifier: 
                keyid:CE:69:35:67:D3:FA:8D:80:15:61:28:9C:C0:D6:CA:EB:E7:43:BB:10

            X509v3 Basic Constraints: critical
                CA:FALSE
            X509v3 CRL Distribution Points: 

                Full Name:
                  URI:http://rsa-sub-ca.orzrz.com/rsa-sub-ca.crl

            X509v3 Extended Key Usage: 
                TLS Web Client Authentication, TLS Web Server Authentication
            X509v3 Key Usage: critical
                Digital Signature, Key Encipherment
            X509v3 Subject Key Identifier: 
                B6:32:44:36:AE:DF:33:91:8D:96:41:BE:43:6F:EE:90:56:F6:88:D8
    Signature Algorithm: sha256WithRSAEncryption
         72:6d:9f:e0:84:4b:33:58:51:03:b7:63:4d:87:ba:7c:87:d2:
         7a:6a:a2:cd:9e:f7:59:a6:58:59:18:9f:2e:fa:05:32:e6:5a:
         91:47:fb:73:2b:bb:b8:08:dc:6d:46:4e:e3:ae:1f:b2:63:e2:
         9b:f7:e8:c8:a8:a7:06:ee:3e:71:c8:9d:7b:58:5f:b1:89:01:
         99:ad:31:18:7b:92:f9:3e:fa:b0:6f:fe:43:98:b6:69:bf:82:
         54:69:35:83:49:c4:a8:74:fd:2e:1d:c0:4f:ec:69:91:d0:9b:
         95:98:60:28:c5:13:bf:b7:de:ef:47:8f:8f:e3:e3:e0:3a:8f:
         a4:18:ba:57:61:18:53:c1:8a:06:fd:36:83:3e:48:0c:9a:4c:
         52:d8:fe:f3:39:12:11:dd:56:74:e2:6f:b5:bc:f0:b9:8f:bd:
         1c:c2:50:be:fd:33:ff:87:34:83:94:7c:f7:c8:ad:68:d9:55:
         2f:0f:f1:d2:c3:1c:fa:da:b7:bf:7a:eb:ff:00:59:1f:ed:12:
         7a:15:9f:7e:aa:9c:c4:52:30:a7:8a:6a:64:d4:9d:d6:5c:0b:
         8a:2b:f3:a6:c4:24:53:00:b6:f3:d2:3e:cd:eb:12:6e:2f:74:
         9a:7d:db:05:3e:a9:c6:3b:d0:c7:4d:67:66:bd:d1:6d:15:45:
         ec:f6:49:fe
-----BEGIN CERTIFICATE-----
MIIETjCCAzagAwIBAgIQJW6R+0i55FZMOQFCYMiCTjANBgkqhkiG9w0BAQsFADAv
MQswCQYDVQQGEwJDTjEOMAwGA1UECgwFb3J6cnoxEDAOBgNVBAMMB1Jvb3QgQ0Ew
HhcNMjExMjA3MDYyMzI5WhcNMzExMjA1MDYyMzI5WjBaMQswCQYDVQQGEwJDTjEO
MAwGA1UECgwFb3J6cnoxHDAaBgNVBAMME3d3dy5yc2EtZXhhbXBsZS5jb20xHTAb
BgkqhkiG9w0BCQEWDnRlc3RAb3J6cnouY29tMIIBIjANBgkqhkiG9w0BAQEFAAOC
AQ8AMIIBCgKCAQEA0M1zI5FMeUo1Eo8LrX/4S9z/bYQBXRa3j6Z5dk2WQBbSjecV
0UthhXfXWJ6eeZO6iz5DJkFE7nJkzqOnRhAihzJkJMn6HlNcmPuMAkE1KyRcWuzh
OPdCyEGrYAWsy2YokeaCjMGX8x/lT4z1endFS9CJCl9H1PEEGMjAZpUFmYN4K2zJ
EPKjn62P5rwd0xdrVewamYMrpIItjKHr7CNBfL5k2a4KurCyOGibUheMKWDs62MD
Eau8OsBkA1/oIVAdHf6Ag8YAjvgqgkJKxpKSwHk8BZ2xl40yez3389v6FqqnjgRu
i9YkaZ2d9wfG29fAvrf3P7ioNa4eBjaRvURItwIDAQABo4IBOTCCATUweQYIKwYB
BQUHAQEEbTBrMDYGCCsGAQUFBzAChipodHRwOi8vcnNhLXN1Yi1jYS5vcnpyei5j
b20vcnNhLXN1Yi1jYS5jcnQwMQYIKwYBBQUHMAGGJWh0dHA6Ly9vY3NwLnJzYS1z
dWItY2Eub3J6cnouY29tOjkwODEwHwYDVR0jBBgwFoAUzmk1Z9P6jYAVYSicwNbK
6+dDuxAwDAYDVR0TAQH/BAIwADA7BgNVHR8ENDAyMDCgLqAshipodHRwOi8vcnNh
LXN1Yi1jYS5vcnpyei5jb20vcnNhLXN1Yi1jYS5jcmwwHQYDVR0lBBYwFAYIKwYB
BQUHAwIGCCsGAQUFBwMBMA4GA1UdDwEB/wQEAwIFoDAdBgNVHQ4EFgQUtjJENq7f
M5GNlkG+Q2/ukFb2iNgwDQYJKoZIhvcNAQELBQADggEBAHJtn+CESzNYUQO3Y02H
unyH0npqos2e91mmWFkYny76BTLmWpFH+3Mru7gI3G1GTuOuH7Jj4pv36Miopwbu
PnHInXtYX7GJAZmtMRh7kvk++rBv/kOYtmm/glRpNYNJxKh0/S4dwE/saZHQm5WY
YCjFE7+33u9Hj4/j4+A6j6QYuldhGFPBigb9NoM+SAyaTFLY/vM5EhHdVnTib7W8
8LmPvRzCUL79M/+HNIOUfPfIrWjZVS8P8dLDHPrat7966/8AWR/tEnoVn36qnMRS
MKeKamTUndZcC4or86bEJFMAtvPSPs3rEm4vdJp92wU+qcY70MdNZ2a90W0VRez2
Sf4=
-----END CERTIFICATE-----
