Certificate:
    Data:
        Version: 3 (0x2)
        Serial Number:
            37:7e:5a:78:6a:02:27:f5:0d:64:f6:44:af:6e:66:14
    Signature Algorithm: ecdsa-with-SHA256
        Issuer: C=CN, O=orzrz, CN=Root CA
        Validity
            Not Before: Dec  7 05:45:42 2021 GMT
            Not After : Dec  5 05:45:42 2031 GMT
        Subject: C=CN, O=orzrz, CN=www.ec-example.com/emailAddress=test@orzrz.com
        Subject Public Key Info:
            Public Key Algorithm: id-ecPublicKey
                Public-Key: (256 bit)
                pub: 
                    04:ba:65:3d:3c:60:7c:e8:68:98:ac:dc:04:e7:66:
                    48:22:b7:23:da:37:86:0c:30:5f:93:f8:51:d6:a0:
                    18:82:f3:d3:e7:1c:d7:ce:b6:c3:b3:3e:30:d6:0c:
                    e1:1d:62:8c:23:c7:1d:12:91:88:70:cc:bd:5c:d9:
                    d2:96:10:b7:cb
                Field Type: prime-field
                Prime:
                    00:ff:ff:ff:ff:00:00:00:01:00:00:00:00:00:00:
                    00:00:00:00:00:00:ff:ff:ff:ff:ff:ff:ff:ff:ff:
                    ff:ff:ff
                A:   
                    00:ff:ff:ff:ff:00:00:00:01:00:00:00:00:00:00:
                    00:00:00:00:00:00:ff:ff:ff:ff:ff:ff:ff:ff:ff:
                    ff:ff:fc
                B:   
                    5a:c6:35:d8:aa:3a:93:e7:b3:eb:bd:55:76:98:86:
                    bc:65:1d:06:b0:cc:53:b0:f6:3b:ce:3c:3e:27:d2:
                    60:4b
                Generator (uncompressed):
                    04:6b:17:d1:f2:e1:2c:42:47:f8:bc:e6:e5:63:a4:
                    40:f2:77:03:7d:81:2d:eb:33:a0:f4:a1:39:45:d8:
                    98:c2:96:4f:e3:42:e2:fe:1a:7f:9b:8e:e7:eb:4a:
                    7c:0f:9e:16:2b:ce:33:57:6b:31:5e:ce:cb:b6:40:
                    68:37:bf:51:f5
                Order: 
                    00:ff:ff:ff:ff:00:00:00:00:ff:ff:ff:ff:ff:ff:
                    ff:ff:bc:e6:fa:ad:a7:17:9e:84:f3:b9:ca:c2:fc:
                    63:25:51
                Cofactor:  1 (0x1)
                Seed:
                    c4:9d:36:08:86:e7:04:93:6a:66:78:e1:13:9d:26:
                    b7:81:9f:7e:90
        X509v3 extensions:
            Authority Information Access: 
                CA Issuers - URI:http://ec-sub-ca.orzrz.com/ec-sub-ca.crt
                OCSP - URI:http://ocsp.ec-sub-ca.orzrz.com:9081

            X509v3 Authority Key Identifier: 
                keyid:49:14:22:2A:C4:03:DE:3A:66:93:C3:6E:18:0E:C4:06:C8:58:10:2D

            X509v3 Basic Constraints: critical
                CA:FALSE
            X509v3 CRL Distribution Points: 

                Full Name:
                  URI:http://ec-sub-ca.orzrz.com/ec-sub-ca.crl

            X509v3 Extended Key Usage: 
                TLS Web Client Authentication, TLS Web Server Authentication
            X509v3 Key Usage: critical
                Digital Signature, Key Encipherment
            X509v3 Subject Key Identifier: 
                DE:44:BD:B8:4B:07:C9:F6:60:6F:0B:C3:56:20:95:12:C8:AD:40:F2
    Signature Algorithm: ecdsa-with-SHA256
         30:45:02:21:00:9b:86:f4:01:40:82:1e:37:19:38:bc:61:20:
         18:5c:d5:71:5d:9c:7a:6c:de:da:62:fa:2c:62:fe:b6:db:c3:
         21:02:20:4e:cc:14:2d:17:eb:b6:30:fe:da:67:da:a3:2c:86:
         00:ea:79:dc:af:bc:fc:bd:e8:65:51:09:06:50:4a:02:9d
-----BEGIN CERTIFICATE-----
MIIDsDCCA1agAwIBAgIQN35aeGoCJ/UNZPZEr25mFDAKBggqhkjOPQQDAjAvMQsw
CQYDVQQGEwJDTjEOMAwGA1UECgwFb3J6cnoxEDAOBgNVBAMMB1Jvb3QgQ0EwHhcN
MjExMjA3MDU0NTQyWhcNMzExMjA1MDU0NTQyWjBZMQswCQYDVQQGEwJDTjEOMAwG
A1UECgwFb3J6cnoxGzAZBgNVBAMMEnd3dy5lYy1leGFtcGxlLmNvbTEdMBsGCSqG
SIb3DQEJARYOdGVzdEBvcnpyei5jb20wggFLMIIBAwYHKoZIzj0CATCB9wIBATAs
BgcqhkjOPQEBAiEA/////wAAAAEAAAAAAAAAAAAAAAD///////////////8wWwQg
/////wAAAAEAAAAAAAAAAAAAAAD///////////////wEIFrGNdiqOpPns+u9VXaY
hrxlHQawzFOw9jvOPD4n0mBLAxUAxJ02CIbnBJNqZnjhE50mt4GffpAEQQRrF9Hy
4SxCR/i85uVjpEDydwN9gS3rM6D0oTlF2JjClk/jQuL+Gn+bjufrSnwPnhYrzjNX
azFezsu2QGg3v1H1AiEA/////wAAAAD//////////7zm+q2nF56E87nKwvxjJVEC
AQEDQgAEumU9PGB86GiYrNwE52ZIIrcj2jeGDDBfk/hR1qAYgvPT5xzXzrbDsz4w
1gzhHWKMI8cdEpGIcMy9XNnSlhC3y6OCATQwggEwMHYGCCsGAQUFBwEBBGowaDA0
BggrBgEFBQcwAoYoaHR0cDovL2VjLXN1Yi1jYS5vcnpyei5jb20vZWMtc3ViLWNh
LmNydDAwBggrBgEFBQcwAYYkaHR0cDovL29jc3AuZWMtc3ViLWNhLm9yenJ6LmNv
bTo5MDgxMB8GA1UdIwQYMBaAFEkUIirEA946ZpPDbhgOxAbIWBAtMAwGA1UdEwEB
/wQCMAAwOQYDVR0fBDIwMDAuoCygKoYoaHR0cDovL2VjLXN1Yi1jYS5vcnpyei5j
b20vZWMtc3ViLWNhLmNybDAdBgNVHSUEFjAUBggrBgEFBQcDAgYIKwYBBQUHAwEw
DgYDVR0PAQH/BAQDAgWgMB0GA1UdDgQWBBTeRL24SwfJ9mBvC8NWIJUSyK1A8jAK
BggqhkjOPQQDAgNIADBFAiEAm4b0AUCCHjcZOLxhIBhc1XFdnHps3tpi+ixi/rbb
wyECIE7MFC0X67Yw/tpn2qMshgDqedyvvPy96GVRCQZQSgKd
-----END CERTIFICATE-----
