Certificate:
    Data:
        Version: 3 (0x2)
        Serial Number:
            37:7e:5a:78:6a:02:27:f5:0d:64:f6:44:af:6e:66:11
    Signature Algorithm: ecdsa-with-SHA256
        Issuer: C=CN, O=orzrz, CN=Root CA
        Validity
            Not Before: Dec  1 06:58:32 2021 GMT
            Not After : Nov 29 06:58:32 2031 GMT
        Subject: C=CN, O=orzrz, CN=Root CA
        Subject Public Key Info:
            Public Key Algorithm: id-ecPublicKey
                Public-Key: (256 bit)
                pub: 
                    04:93:af:b3:18:d1:9c:f4:7a:49:d3:35:15:5b:8a:
                    f6:6a:dd:44:80:30:2b:89:d0:e7:de:e9:4c:3f:f9:
                    70:84:b7:14:c5:9c:46:ca:fa:e1:9c:fb:b1:6a:90:
                    f5:96:9d:f5:89:d2:17:2e:5b:e6:1e:06:1b:b8:d4:
                    35:38:20:ff:f5
                Field Type: prime-field
                Prime:
                    00:ff:ff:ff:ff:00:00:00:01:00:00:00:00:00:00:
                    00:00:00:00:00:00:ff:ff:ff:ff:ff:ff:ff:ff:ff:
                    ff:ff:ff
                A:   
                    00:ff:ff:ff:ff:00:00:00:01:00:00:00:00:00:00:
                    00:00:00:00:00:00:ff:ff:ff:ff:ff:ff:ff:ff:ff:
                    ff:ff:fc
                B:   
                    5a:c6:35:d8:aa:3a:93:e7:b3:eb:bd:55:76:98:86:
                    bc:65:1d:06:b0:cc:53:b0:f6:3b:ce:3c:3e:27:d2:
                    60:4b
                Generator (uncompressed):
                    04:6b:17:d1:f2:e1:2c:42:47:f8:bc:e6:e5:63:a4:
                    40:f2:77:03:7d:81:2d:eb:33:a0:f4:a1:39:45:d8:
                    98:c2:96:4f:e3:42:e2:fe:1a:7f:9b:8e:e7:eb:4a:
                    7c:0f:9e:16:2b:ce:33:57:6b:31:5e:ce:cb:b6:40:
                    68:37:bf:51:f5
                Order: 
                    00:ff:ff:ff:ff:00:00:00:00:ff:ff:ff:ff:ff:ff:
                    ff:ff:bc:e6:fa:ad:a7:17:9e:84:f3:b9:ca:c2:fc:
                    63:25:51
                Cofactor:  1 (0x1)
                Seed:
                    c4:9d:36:08:86:e7:04:93:6a:66:78:e1:13:9d:26:
                    b7:81:9f:7e:90
        X509v3 extensions:
            X509v3 Basic Constraints: critical
                CA:TRUE
            X509v3 Key Usage: critical
                Certificate Sign, CRL Sign
            X509v3 Subject Key Identifier: 
                49:14:22:2A:C4:03:DE:3A:66:93:C3:6E:18:0E:C4:06:C8:58:10:2D
    Signature Algorithm: ecdsa-with-SHA256
         30:45:02:21:00:e3:21:00:0b:7f:85:5e:2c:c3:fe:52:23:f9:
         03:67:6d:fc:61:c0:a3:bb:bd:a8:29:33:49:c7:90:5c:49:5b:
         c1:02:20:77:8b:50:02:99:50:9e:c0:fd:93:98:46:88:a6:b5:
         b8:e5:15:2d:00:21:01:96:d7:d3:0e:5f:cc:d8:38:06:01
-----BEGIN CERTIFICATE-----
MIICkjCCAjigAwIBAgIQN35aeGoCJ/UNZPZEr25mETAKBggqhkjOPQQDAjAvMQsw
CQYDVQQGEwJDTjEOMAwGA1UECgwFb3J6cnoxEDAOBgNVBAMMB1Jvb3QgQ0EwHhcN
MjExMjAxMDY1ODMyWhcNMzExMTI5MDY1ODMyWjAvMQswCQYDVQQGEwJDTjEOMAwG
A1UECgwFb3J6cnoxEDAOBgNVBAMMB1Jvb3QgQ0EwggFLMIIBAwYHKoZIzj0CATCB
9wIBATAsBgcqhkjOPQEBAiEA/////wAAAAEAAAAAAAAAAAAAAAD/////////////
//8wWwQg/////wAAAAEAAAAAAAAAAAAAAAD///////////////wEIFrGNdiqOpPn
s+u9VXaYhrxlHQawzFOw9jvOPD4n0mBLAxUAxJ02CIbnBJNqZnjhE50mt4GffpAE
QQRrF9Hy4SxCR/i85uVjpEDydwN9gS3rM6D0oTlF2JjClk/jQuL+Gn+bjufrSnwP
nhYrzjNXazFezsu2QGg3v1H1AiEA/////wAAAAD//////////7zm+q2nF56E87nK
wvxjJVECAQEDQgAEk6+zGNGc9HpJ0zUVW4r2at1EgDAridDn3ulMP/lwhLcUxZxG
yvrhnPuxapD1lp31idIXLlvmHgYbuNQ1OCD/9aNCMEAwDwYDVR0TAQH/BAUwAwEB
/zAOBgNVHQ8BAf8EBAMCAQYwHQYDVR0OBBYEFEkUIirEA946ZpPDbhgOxAbIWBAt
MAoGCCqGSM49BAMCA0gAMEUCIQDjIQALf4VeLMP+UiP5A2dt/GHAo7u9qCkzSceQ
XElbwQIgd4tQAplQnsD9k5hGiKa1uOUVLQAhAZbX0w5fzNg4BgE=
-----END CERTIFICATE-----
