Certificate:
    Data:
        Version: 3 (0x2)
        Serial Number:
            25:6e:91:fb:48:b9:e4:56:4c:39:01:42:60:c8:82:4d
    Signature Algorithm: sha256WithRSAEncryption
        Issuer: C=CN, O=orzrz, CN=Root CA
        Validity
            Not Before: Dec  1 07:06:23 2021 GMT
            Not After : Nov 29 07:06:23 2031 GMT
        Subject: C=CN, O=orzrz, CN=example/emailAddress=test@orzrz.com
        Subject Public Key Info:
            Public Key Algorithm: rsaEncryption
                Public-Key: (2048 bit)
                Modulus:
                    00:c0:81:db:15:4a:77:8a:5c:88:54:42:f8:80:28:
                    1a:6d:61:77:53:6f:42:a0:a4:97:6f:cf:a3:34:13:
                    d2:cb:1c:e0:55:b8:f8:87:b3:b5:71:2e:b6:da:95:
                    a2:1c:df:a8:bb:b4:d2:2c:58:c5:8a:1f:53:e0:24:
                    ab:06:6e:43:fc:72:cc:32:13:f7:6e:21:be:d2:57:
                    df:a6:ea:93:4f:cd:67:0e:4c:3d:cc:da:e0:f8:27:
                    30:e6:e7:31:e9:a1:06:13:69:31:ed:9b:5f:31:49:
                    bf:20:e3:b9:4d:d1:d2:fd:16:ce:95:36:c7:99:9a:
                    8d:1d:80:9c:d4:ff:12:31:3a:57:f4:44:09:c6:e8:
                    6c:6e:8a:20:3d:45:77:e4:0f:be:22:fa:3c:c4:f4:
                    a8:7a:04:45:72:6d:5d:d8:b8:e5:cf:c5:e2:aa:74:
                    df:b4:d1:f5:c6:9f:cb:21:b4:d0:8d:c2:58:df:23:
                    1e:7e:d2:7e:61:ee:a3:7b:47:a4:1e:15:d5:1d:4b:
                    6d:e6:a2:7d:b5:63:a0:5e:46:8e:5d:e0:2b:1b:31:
                    00:83:8b:8b:06:87:b4:9e:71:73:e0:d3:22:60:b3:
                    73:58:33:b7:a5:56:f2:05:c8:13:9f:6e:e0:0b:a3:
                    27:a4:2c:b8:7f:62:00:76:d2:90:e1:68:80:79:dd:
                    e0:af
                Exponent: 65537 (0x10001)
        X509v3 extensions:
            Authority Information Access: 
                CA Issuers - URI:http://rsa-sub-ca.orzrz.com/rsa-sub-ca.crt
                OCSP - URI:http://ocsp.rsa-sub-ca.orzrz.com:9081

            X509v3 Authority Key Identifier: 
                keyid:CE:69:35:67:D3:FA:8D:80:15:61:28:9C:C0:D6:CA:EB:E7:43:BB:10

            X509v3 Basic Constraints: critical
                CA:FALSE
            X509v3 CRL Distribution Points: 

                Full Name:
                  URI:http://rsa-sub-ca.orzrz.com/rsa-sub-ca.crl

            X509v3 Extended Key Usage: 
                TLS Web Client Authentication, TLS Web Server Authentication
            X509v3 Key Usage: critical
                Digital Signature, Key Encipherment
            X509v3 Subject Key Identifier: 
                36:80:B7:F3:87:5C:7F:0A:AC:64:A2:C8:C6:76:5A:10:CF:CA:ED:19
    Signature Algorithm: sha256WithRSAEncryption
         0e:0c:94:e4:5f:ac:4f:eb:25:9f:ac:79:3a:59:9c:a7:63:61:
         8c:14:74:2d:2b:67:f0:ce:b2:91:e6:2f:2b:45:6f:18:70:2d:
         00:c5:9a:4d:06:4b:e0:6f:ba:6a:99:01:d9:22:40:2f:2a:06:
         a1:22:93:3e:22:a9:9c:73:b1:b6:16:23:b2:4e:9b:0e:cf:62:
         ee:bb:2d:e9:3b:47:32:c4:7c:84:9c:00:15:09:6a:d6:71:35:
         38:6d:5f:ee:df:81:50:aa:fe:73:a5:18:89:25:de:eb:0e:32:
         10:34:dd:47:19:ce:98:d0:c5:75:d0:0a:3f:8a:f3:53:26:9a:
         61:7d:c3:93:6d:1b:23:f3:48:93:5e:56:21:fd:a1:c7:15:3e:
         50:68:73:be:9c:b3:91:52:b4:5f:ea:29:bd:e3:ad:f7:39:df:
         fe:0c:c8:59:a0:46:de:80:79:a1:d9:cc:6a:a8:cc:13:29:10:
         06:82:2c:0c:27:43:ad:af:36:17:75:6d:f2:ed:98:30:fa:83:
         4b:44:8d:cb:84:c6:f8:89:f0:4b:af:c4:9a:7b:96:66:4a:12:
         d1:e6:56:3d:9d:48:88:66:36:d6:ad:2c:3e:42:48:59:bb:5c:
         ca:87:d7:72:62:10:c1:df:ed:c7:bc:f1:13:51:d7:c8:6b:d2:
         56:7c:31:b6
-----BEGIN CERTIFICATE-----
MIIEQjCCAyqgAwIBAgIQJW6R+0i55FZMOQFCYMiCTTANBgkqhkiG9w0BAQsFADAv
MQswCQYDVQQGEwJDTjEOMAwGA1UECgwFb3J6cnoxEDAOBgNVBAMMB1Jvb3QgQ0Ew
HhcNMjExMjAxMDcwNjIzWhcNMzExMTI5MDcwNjIzWjBOMQswCQYDVQQGEwJDTjEO
MAwGA1UECgwFb3J6cnoxEDAOBgNVBAMMB2V4YW1wbGUxHTAbBgkqhkiG9w0BCQEW
DnRlc3RAb3J6cnouY29tMIIBIjANBgkqhkiG9w0BAQEFAAOCAQ8AMIIBCgKCAQEA
wIHbFUp3ilyIVEL4gCgabWF3U29CoKSXb8+jNBPSyxzgVbj4h7O1cS622pWiHN+o
u7TSLFjFih9T4CSrBm5D/HLMMhP3biG+0lffpuqTT81nDkw9zNrg+Ccw5ucx6aEG
E2kx7ZtfMUm/IOO5TdHS/RbOlTbHmZqNHYCc1P8SMTpX9EQJxuhsboogPUV35A++
Ivo8xPSoegRFcm1d2Ljlz8XiqnTftNH1xp/LIbTQjcJY3yMeftJ+Ye6je0ekHhXV
HUtt5qJ9tWOgXkaOXeArGzEAg4uLBoe0nnFz4NMiYLNzWDO3pVbyBcgTn27gC6Mn
pCy4f2IAdtKQ4WiAed3grwIDAQABo4IBOTCCATUweQYIKwYBBQUHAQEEbTBrMDYG
CCsGAQUFBzAChipodHRwOi8vcnNhLXN1Yi1jYS5vcnpyei5jb20vcnNhLXN1Yi1j
YS5jcnQwMQYIKwYBBQUHMAGGJWh0dHA6Ly9vY3NwLnJzYS1zdWItY2Eub3J6cnou
Y29tOjkwODEwHwYDVR0jBBgwFoAUzmk1Z9P6jYAVYSicwNbK6+dDuxAwDAYDVR0T
AQH/BAIwADA7BgNVHR8ENDAyMDCgLqAshipodHRwOi8vcnNhLXN1Yi1jYS5vcnpy
ei5jb20vcnNhLXN1Yi1jYS5jcmwwHQYDVR0lBBYwFAYIKwYBBQUHAwIGCCsGAQUF
BwMBMA4GA1UdDwEB/wQEAwIFoDAdBgNVHQ4EFgQUNoC384dcfwqsZKLIxnZaEM/K
7RkwDQYJKoZIhvcNAQELBQADggEBAA4MlORfrE/rJZ+seTpZnKdjYYwUdC0rZ/DO
spHmLytFbxhwLQDFmk0GS+BvumqZAdkiQC8qBqEikz4iqZxzsbYWI7JOmw7PYu67
Lek7RzLEfIScABUJatZxNThtX+7fgVCq/nOlGIkl3usOMhA03UcZzpjQxXXQCj+K
81MmmmF9w5NtGyPzSJNeViH9occVPlBoc76cs5FStF/qKb3jrfc53/4MyFmgRt6A
eaHZzGqozBMpEAaCLAwnQ62vNhd1bfLtmDD6g0tEjcuExviJ8EuvxJp7lmZKEtHm
Vj2dSIhmNtatLD5CSFm7XMqH13JiEMHf7ce88RNR18hr0lZ8MbY=
-----END CERTIFICATE-----
