Certificate:
    Data:
        Version: 3 (0x2)
        Serial Number:
            25:6e:91:fb:48:b9:e4:56:4c:39:01:42:60:c8:82:4b
    Signature Algorithm: sha256WithRSAEncryption
        Issuer: C=CN, O=orzrz, CN=Root CA
        Validity
            Not Before: Dec  1 06:58:18 2021 GMT
            Not After : Nov 29 06:58:18 2031 GMT
        Subject: C=CN, O=orzrz, CN=Root CA
        Subject Public Key Info:
            Public Key Algorithm: rsaEncryption
                Public-Key: (2048 bit)
                Modulus:
                    00:ac:09:00:9c:99:34:50:2f:e8:28:d0:12:6f:3a:
                    0b:ee:49:1c:5f:41:cc:db:ee:00:a9:a2:f8:0f:6e:
                    fe:93:e9:28:cb:a1:77:97:26:a9:40:47:77:47:71:
                    e8:9d:b7:8b:b4:58:7c:a0:6e:66:21:b3:8c:96:5f:
                    92:a2:fb:7d:20:98:ce:d3:4c:60:4e:bf:df:ba:c9:
                    29:c9:72:74:3d:ad:64:00:17:28:8f:38:b8:a2:3b:
                    b4:d3:1f:51:a8:d3:ee:b9:32:de:e6:ff:41:7e:43:
                    39:33:4c:51:f8:ef:67:33:d3:b4:e2:78:3c:bc:39:
                    fc:4a:b0:a8:cb:7b:af:31:3e:c8:86:5b:5d:81:d8:
                    28:83:a6:de:a0:aa:19:94:b6:bd:64:b0:96:8b:1c:
                    f7:ba:dd:e0:08:bb:ae:69:5c:a6:3f:b9:88:8c:ad:
                    f0:3b:80:29:eb:f4:a5:c9:c3:e9:56:e5:47:0e:9c:
                    a0:2a:3d:e2:ce:d7:d8:f8:12:ea:bb:9a:6d:80:70:
                    26:01:cd:3d:80:7f:60:ac:35:11:60:72:33:97:d7:
                    e8:22:3b:db:b5:34:68:8b:90:a9:18:e9:53:70:a4:
                    51:67:4d:aa:79:ba:c9:a2:27:27:7e:21:12:ed:e7:
                    37:3c:29:e2:31:2f:5d:ed:df:70:13:dc:65:fd:37:
                    ff:d5
                Exponent: 65537 (0x10001)
        X509v3 extensions:
            X509v3 Basic Constraints: critical
                CA:TRUE
            X509v3 Key Usage: critical
                Certificate Sign, CRL Sign
            X509v3 Subject Key Identifier: 
                CE:69:35:67:D3:FA:8D:80:15:61:28:9C:C0:D6:CA:EB:E7:43:BB:10
    Signature Algorithm: sha256WithRSAEncryption
         ab:21:cc:cd:71:4b:a8:12:ef:c7:80:36:ec:be:05:6f:06:f6:
         3f:d6:e0:5f:e7:1a:d1:88:28:c2:e6:85:94:5a:8f:f7:c6:18:
         a8:9c:96:4a:26:36:6d:10:87:69:91:7c:31:db:2e:28:87:20:
         91:29:f3:35:59:96:d2:2d:79:52:2b:e9:99:d0:e6:be:58:43:
         d5:34:d4:5a:4c:ed:0a:f0:fe:e6:64:e5:ab:62:23:00:71:80:
         50:ed:d2:4b:cc:92:63:de:a3:70:66:aa:2c:6d:89:8d:02:e9:
         b3:8a:1e:6b:4a:08:95:d5:14:24:a2:07:09:14:a1:6d:9e:48:
         32:95:c2:b5:f8:d8:a2:c1:dc:46:2c:58:66:fb:6f:56:b8:18:
         63:c2:da:98:72:a0:82:a1:97:70:56:9b:7c:e2:4d:e3:98:73:
         42:8c:1d:24:9c:c8:bc:bb:fe:b5:98:94:7d:33:0f:87:75:79:
         16:a4:49:32:c4:4c:97:67:52:d2:a2:f2:3c:84:02:40:97:c1:
         4d:87:fa:92:e7:f8:da:75:6e:e6:32:bf:4d:12:e7:47:27:a1:
         aa:a3:9f:5c:f1:83:a6:49:b8:71:45:26:1c:bc:a2:13:8c:92:
         9c:d7:11:59:ff:0e:c8:ce:52:4d:0b:5c:cd:d9:b3:ee:9e:ef:
         a5:de:1a:6f
-----BEGIN CERTIFICATE-----
MIIDKjCCAhKgAwIBAgIQJW6R+0i55FZMOQFCYMiCSzANBgkqhkiG9w0BAQsFADAv
MQswCQYDVQQGEwJDTjEOMAwGA1UECgwFb3J6cnoxEDAOBgNVBAMMB1Jvb3QgQ0Ew
HhcNMjExMjAxMDY1ODE4WhcNMzExMTI5MDY1ODE4WjAvMQswCQYDVQQGEwJDTjEO
MAwGA1UECgwFb3J6cnoxEDAOBgNVBAMMB1Jvb3QgQ0EwggEiMA0GCSqGSIb3DQEB
AQUAA4IBDwAwggEKAoIBAQCsCQCcmTRQL+go0BJvOgvuSRxfQczb7gCpovgPbv6T
6SjLoXeXJqlAR3dHceidt4u0WHygbmYhs4yWX5Ki+30gmM7TTGBOv9+6ySnJcnQ9
rWQAFyiPOLiiO7TTH1Go0+65Mt7m/0F+QzkzTFH472cz07TieDy8OfxKsKjLe68x
PsiGW12B2CiDpt6gqhmUtr1ksJaLHPe63eAIu65pXKY/uYiMrfA7gCnr9KXJw+lW
5UcOnKAqPeLO19j4Euq7mm2AcCYBzT2Af2CsNRFgcjOX1+giO9u1NGiLkKkY6VNw
pFFnTap5usmiJyd+IRLt5zc8KeIxL13t33AT3GX9N//VAgMBAAGjQjBAMA8GA1Ud
EwEB/wQFMAMBAf8wDgYDVR0PAQH/BAQDAgEGMB0GA1UdDgQWBBTOaTVn0/qNgBVh
KJzA1srr50O7EDANBgkqhkiG9w0BAQsFAAOCAQEAqyHMzXFLqBLvx4A27L4Fbwb2
P9bgX+ca0YgowuaFlFqP98YYqJyWSiY2bRCHaZF8MdsuKIcgkSnzNVmW0i15Uivp
mdDmvlhD1TTUWkztCvD+5mTlq2IjAHGAUO3SS8ySY96jcGaqLG2JjQLps4oea0oI
ldUUJKIHCRShbZ5IMpXCtfjYosHcRixYZvtvVrgYY8LamHKggqGXcFabfOJN45hz
QowdJJzIvLv+tZiUfTMPh3V5FqRJMsRMl2dS0qLyPIQCQJfBTYf6kuf42nVu5jK/
TRLnRyehqqOfXPGDpkm4cUUmHLyiE4ySnNcRWf8OyM5STQtczdmz7p7vpd4abw==
-----END CERTIFICATE-----
