Certificate:
    Data:
        Version: 3 (0x2)
        Serial Number:
            25:6e:91:fb:48:b9:e4:56:4c:39:01:42:60:c8:82:4c
    Signature Algorithm: sha256WithRSAEncryption
        Issuer: C=CN, O=orzrz, CN=Root CA
        Validity
            Not Before: Dec  1 07:02:02 2021 GMT
            Not After : Nov 29 07:02:02 2031 GMT
        Subject: C=CN, O=orzrz, CN=Sub CA
        Subject Public Key Info:
            Public Key Algorithm: rsaEncryption
                Public-Key: (2048 bit)
                Modulus:
                    00:b4:00:10:06:cb:17:8f:0c:5b:e6:f0:11:1e:de:
                    21:ec:b4:05:71:04:b6:c8:d8:9e:05:52:a6:90:18:
                    94:e4:22:d0:9d:fa:7b:c0:2a:8f:52:9c:08:e4:cf:
                    bc:6d:47:09:71:24:9e:49:c7:24:ed:8e:e1:3c:1d:
                    52:50:8a:ec:2f:4c:0b:55:87:a2:f3:1e:79:4e:0f:
                    5a:76:42:e3:b4:b5:2f:91:3d:db:ae:a0:0e:fd:6a:
                    03:f4:cf:0d:6a:bd:b1:d0:77:9f:37:b4:38:9c:a7:
                    ae:7e:d8:ca:e8:06:42:70:32:e0:2f:d1:cb:7e:d9:
                    54:f4:f8:ae:38:e2:40:d8:8d:f4:84:5c:e5:30:53:
                    50:bb:92:e6:20:a4:bf:24:c0:2b:34:6f:67:ae:d6:
                    19:f2:28:1b:7a:a9:ce:b2:43:8e:2f:09:42:7a:14:
                    47:49:6d:80:61:d0:6e:64:ea:b9:e8:13:fb:2b:c4:
                    c6:b6:d3:79:bb:a2:ea:6f:2a:86:81:24:c8:df:98:
                    f4:25:e6:57:52:17:87:27:9a:91:b8:1f:4e:c2:cc:
                    a2:cb:b8:fb:89:f7:67:f2:34:5d:95:66:0b:2b:96:
                    a6:9d:f3:bc:f4:a3:f3:50:4f:2e:bf:30:4b:9d:96:
                    57:3c:e8:b8:a7:be:b3:1f:ec:47:23:4d:13:65:db:
                    ae:ab
                Exponent: 65537 (0x10001)
        X509v3 extensions:
            Authority Information Access: 
                CA Issuers - URI:http://rsa-sub-ca.orzrz.com/rsa-sub-ca.crt
                OCSP - URI:http://ocsp.rsa-sub-ca.orzrz.com:9081

            X509v3 Authority Key Identifier: 
                keyid:CE:69:35:67:D3:FA:8D:80:15:61:28:9C:C0:D6:CA:EB:E7:43:BB:10

            X509v3 Basic Constraints: critical
                CA:TRUE, pathlen:0
            X509v3 CRL Distribution Points: 

                Full Name:
                  URI:http://rsa-sub-ca.orzrz.com/rsa-sub-ca.crl

            X509v3 Extended Key Usage: 
                TLS Web Client Authentication, TLS Web Server Authentication
            X509v3 Key Usage: critical
                Certificate Sign, CRL Sign
            X509v3 Name Constraints: 
                Permitted:
                  DNS:orzrz.com
                  DNS:orzrz.org
                Excluded:
                  IP:0.0.0.0/0.0.0.0
                  IP:0:0:0:0:0:0:0:0/0:0:0:0:0:0:0:0

            X509v3 Subject Key Identifier: 
                5E:B5:F1:8A:3F:26:F5:F4:97:F2:84:13:BC:40:34:B8:3D:FF:41:00
    Signature Algorithm: sha256WithRSAEncryption
         11:7d:ab:8e:3f:9b:a6:70:a8:67:43:68:29:48:a1:e9:32:7f:
         fe:a8:ac:f7:f3:d2:ea:f1:7e:17:1d:bb:51:94:a5:1c:5d:cc:
         20:41:4d:9c:7d:e3:a7:81:c9:44:38:94:8b:5a:37:6f:60:49:
         15:c6:9c:ef:dc:d9:f6:0d:92:45:d8:44:c9:5e:19:01:79:aa:
         17:db:63:53:5f:8e:36:45:75:cc:12:3a:3a:43:b1:56:1c:76:
         74:31:f9:aa:b9:2c:0f:7c:43:b2:c3:c4:ef:ef:8a:a1:50:02:
         d5:80:7b:7c:81:68:47:a9:83:07:ae:67:c5:9a:fb:18:6a:b3:
         02:04:eb:5e:e1:71:05:ed:40:11:64:97:d3:08:ad:a2:f8:89:
         9f:2f:40:52:26:60:d6:e0:4a:03:38:34:59:94:2f:96:70:94:
         68:72:e1:1b:9c:58:9c:d6:c4:3e:c7:4f:7a:5c:3c:9a:6a:af:
         a4:b2:47:d7:d6:4b:01:68:38:37:98:99:f0:fa:2d:f4:26:cf:
         0f:7f:8a:6e:87:5b:3f:2f:cc:d6:00:9b:00:d9:01:b4:3f:d3:
         e6:19:43:0c:02:4f:ca:da:f1:ea:0a:b0:a0:d4:af:59:c9:4f:
         f6:46:62:b9:c8:10:75:35:70:39:fa:a5:78:03:50:d5:01:dd:
         a8:b8:0e:05
-----BEGIN CERTIFICATE-----
MIIEgTCCA2mgAwIBAgIQJW6R+0i55FZMOQFCYMiCTDANBgkqhkiG9w0BAQsFADAv
MQswCQYDVQQGEwJDTjEOMAwGA1UECgwFb3J6cnoxEDAOBgNVBAMMB1Jvb3QgQ0Ew
HhcNMjExMjAxMDcwMjAyWhcNMzExMTI5MDcwMjAyWjAuMQswCQYDVQQGEwJDTjEO
MAwGA1UECgwFb3J6cnoxDzANBgNVBAMMBlN1YiBDQTCCASIwDQYJKoZIhvcNAQEB
BQADggEPADCCAQoCggEBALQAEAbLF48MW+bwER7eIey0BXEEtsjYngVSppAYlOQi
0J36e8Aqj1KcCOTPvG1HCXEknknHJO2O4TwdUlCK7C9MC1WHovMeeU4PWnZC47S1
L5E9266gDv1qA/TPDWq9sdB3nze0OJynrn7YyugGQnAy4C/Ry37ZVPT4rjjiQNiN
9IRc5TBTULuS5iCkvyTAKzRvZ67WGfIoG3qpzrJDji8JQnoUR0ltgGHQbmTquegT
+yvExrbTebui6m8qhoEkyN+Y9CXmV1IXhyeakbgfTsLMosu4+4n3Z/I0XZVmCyuW
pp3zvPSj81BPLr8wS52WVzzouKe+sx/sRyNNE2XbrqsCAwEAAaOCAZgwggGUMHkG
CCsGAQUFBwEBBG0wazA2BggrBgEFBQcwAoYqaHR0cDovL3JzYS1zdWItY2Eub3J6
cnouY29tL3JzYS1zdWItY2EuY3J0MDEGCCsGAQUFBzABhiVodHRwOi8vb2NzcC5y
c2Etc3ViLWNhLm9yenJ6LmNvbTo5MDgxMB8GA1UdIwQYMBaAFM5pNWfT+o2AFWEo
nMDWyuvnQ7sQMBIGA1UdEwEB/wQIMAYBAf8CAQAwOwYDVR0fBDQwMjAwoC6gLIYq
aHR0cDovL3JzYS1zdWItY2Eub3J6cnouY29tL3JzYS1zdWItY2EuY3JsMB0GA1Ud
JQQWMBQGCCsGAQUFBwMCBggrBgEFBQcDATAOBgNVHQ8BAf8EBAMCAQYwVwYDVR0e
BFAwTqAaMAuCCW9yenJ6LmNvbTALgglvcnpyei5vcmehMDAKhwgAAAAAAAAAADAi
hyAAAAAAAAAAAAAAAAAAAAAAAAAAAAAAAAAAAAAAAAAAADAdBgNVHQ4EFgQUXrXx
ij8m9fSX8oQTvEA0uD3/QQAwDQYJKoZIhvcNAQELBQADggEBABF9q44/m6ZwqGdD
aClIoekyf/6orPfz0urxfhcdu1GUpRxdzCBBTZx946eByUQ4lItaN29gSRXGnO/c
2fYNkkXYRMleGQF5qhfbY1NfjjZFdcwSOjpDsVYcdnQx+aq5LA98Q7LDxO/viqFQ
AtWAe3yBaEepgweuZ8Wa+xhqswIE617hcQXtQBFkl9MIraL4iZ8vQFImYNbgSgM4
NFmUL5ZwlGhy4RucWJzWxD7HT3pcPJpqr6SyR9fWSwFoODeYmfD6LfQmzw9/im6H
Wz8vzNYAmwDZAbQ/0+YZQwwCT8ra8eoKsKDUr1nJT/ZGYrnIEHU1cDn6pXgDUNUB
3ai4DgU=
-----END CERTIFICATE-----
