Certificate:
    Data:
        Version: 3 (0x2)
        Serial Number:
            35:ba:ee:cd:35:92:00:10:30:a8:4a:0e:9a:f4:db:3b
    Signature Algorithm: sha256WithRSAEncryption
        Issuer: C=CN, O=orzrz, CN=Root CA
        Validity
            Not Before: Nov 30 12:36:38 2021 GMT
            Not After : Nov 28 12:36:38 2031 GMT
        Subject: C=CN, O=orzrz, CN=Sub CA
        Subject Public Key Info:
            Public Key Algorithm: rsaEncryption
                Public-Key: (4096 bit)
                Modulus:
                    00:c9:e7:52:6e:25:1c:01:34:70:d6:b6:e8:ed:3f:
                    08:7a:68:64:dc:cb:c9:4d:4c:71:bd:cf:48:ce:7e:
                    77:92:21:b5:0e:44:e7:9f:e0:e4:71:ad:ca:5e:26:
                    ea:3f:3f:99:97:d5:5a:3a:0f:ea:98:2a:3e:ba:0e:
                    f3:5f:8f:fc:ac:62:75:02:e7:89:fc:50:56:5d:c9:
                    0e:33:47:b2:46:e0:37:77:35:ba:c7:90:69:71:17:
                    21:ab:69:3a:09:7b:fd:88:d5:7a:fb:1a:51:e0:af:
                    0b:9d:27:40:53:e7:23:25:6e:d2:db:d9:2e:d4:9a:
                    60:b3:3b:5a:ea:4f:90:3e:29:f2:d0:20:6b:35:fe:
                    86:f7:27:96:30:0b:ca:0a:e4:11:bb:b3:2b:ed:de:
                    68:93:02:fc:bc:46:48:6b:e3:18:9b:1c:a1:64:27:
                    29:d9:9d:97:1c:4f:c3:56:86:b1:aa:8d:a9:b3:d1:
                    61:b0:02:25:fe:4c:fc:b2:ab:80:bb:fe:90:11:98:
                    2c:15:1c:84:b3:94:48:61:a6:9e:ab:9a:3e:ff:cf:
                    1a:c6:62:74:7f:8b:aa:08:07:9d:66:d1:57:4b:d8:
                    98:63:20:b4:d0:3d:52:9f:61:df:a6:67:be:bd:bc:
                    4d:ee:8b:10:16:f4:9c:0c:d1:1f:cb:29:bd:6a:ae:
                    52:4b:5c:00:cc:10:14:6d:9d:64:bc:be:33:51:e0:
                    df:a2:84:a6:42:9c:99:55:35:5e:e9:c9:8e:38:d3:
                    a0:1e:1d:85:18:f4:78:90:9f:7d:18:0b:e7:c5:e3:
                    5e:a1:e4:cd:d2:0d:69:df:10:c0:b4:2f:a6:60:01:
                    79:a3:7b:c4:53:a7:57:76:89:81:6c:57:ce:b6:d6:
                    4f:7e:79:ea:ba:a2:76:e3:c0:0a:4c:23:c9:e2:be:
                    41:d2:7b:a9:57:07:dd:5f:e4:a1:36:8f:6d:6f:76:
                    94:ae:24:4e:b9:2a:79:ba:3e:d6:9b:96:a9:46:28:
                    d1:91:5d:ee:88:20:d6:1c:10:93:34:c5:06:e4:5d:
                    e1:61:71:19:a8:be:cc:37:4c:56:30:5e:a6:27:7d:
                    52:dd:53:3c:b7:f4:53:68:ee:44:7f:93:3d:31:d2:
                    d6:fc:6f:50:3c:63:a4:2d:52:c8:c8:da:f3:ce:d3:
                    2a:fe:3e:ef:53:c3:9b:61:59:b5:48:35:db:39:75:
                    75:81:35:cf:e4:ae:54:ed:66:a6:9d:4e:0d:22:ff:
                    4f:f9:12:6f:7f:14:16:5a:0d:17:33:e3:d9:23:91:
                    ed:6e:0f:5c:56:22:f5:0e:1f:c5:b3:d1:b5:2f:ab:
                    01:18:30:cc:74:09:ac:98:38:8e:dd:da:e0:69:91:
                    19:27:1f
                Exponent: 65537 (0x10001)
        X509v3 extensions:
            Authority Information Access: 
                CA Issuers - URI:http://rsa-sub-ca.orzrz.com/rsa-sub-ca.crt
                OCSP - URI:http://ocsp.rsa-sub-ca.orzrz.com:9081

            X509v3 Authority Key Identifier: 
                keyid:1B:7D:38:15:94:FF:2C:7A:71:C6:6C:8C:2D:6E:91:D9:E9:34:12:E7

            X509v3 Basic Constraints: critical
                CA:TRUE, pathlen:0
            X509v3 CRL Distribution Points: 

                Full Name:
                  URI:http://rsa-sub-ca.orzrz.com/rsa-sub-ca.crl

            X509v3 Extended Key Usage: 
                TLS Web Client Authentication, TLS Web Server Authentication
            X509v3 Key Usage: critical
                Certificate Sign, CRL Sign
            X509v3 Name Constraints: 
                Permitted:
                  DNS:orzrz.com
                  DNS:orzrz.org
                Excluded:
                  IP:0.0.0.0/0.0.0.0
                  IP:0:0:0:0:0:0:0:0/0:0:0:0:0:0:0:0

            X509v3 Subject Key Identifier: 
                88:9E:9C:67:C7:06:2F:5C:3A:C8:00:AF:B2:BB:B3:1D:48:9F:C3:09
    Signature Algorithm: sha256WithRSAEncryption
         4c:a9:b0:37:b5:4a:96:2d:05:65:23:56:f8:a5:9c:d4:d2:e5:
         54:aa:7b:95:4d:5a:b7:70:ac:83:d6:9e:fb:76:0b:66:a9:93:
         b1:aa:d3:de:5e:f6:30:50:65:12:8f:1c:17:01:0e:59:8c:8a:
         be:22:96:98:45:f9:2e:65:f4:2b:45:97:e7:b5:47:35:f6:da:
         0b:f6:f9:db:8e:3b:6a:86:c6:28:f1:0c:48:00:b0:d0:b7:ae:
         9c:fc:76:88:52:31:d2:17:0f:72:9b:82:ce:80:85:14:e8:30:
         81:76:30:63:35:5d:75:6f:ab:7d:31:6f:a4:c5:1b:29:7e:8d:
         8b:90:fa:91:8c:40:03:95:b7:39:32:d1:9c:a3:f6:34:c5:6e:
         63:8c:b6:7e:23:e0:d7:cc:3b:68:d7:5f:a6:5a:54:1f:c4:bb:
         50:e9:c3:38:d2:ad:90:1b:3f:e1:6d:bc:12:60:dc:71:48:52:
         66:8b:cc:c7:3e:f7:b9:1f:c0:58:19:c4:91:45:29:c5:82:82:
         06:47:44:19:77:3b:28:64:35:09:91:12:93:94:aa:bb:88:d7:
         b2:6f:6f:07:00:89:07:90:79:a1:93:ae:e7:54:c8:24:cf:2f:
         05:da:e7:0b:e2:07:17:7a:b9:91:f8:85:36:4e:0b:90:f8:2f:
         d3:ec:0a:40:ec:7e:3e:d5:0b:4d:68:24:cb:24:38:ad:a4:7c:
         3f:8b:72:48:e1:ac:14:89:fc:26:5b:24:d8:84:be:a1:c4:2b:
         a0:42:93:2e:4b:31:71:c5:bd:1f:27:56:fa:6d:6c:a0:c8:4c:
         d3:ec:ac:a8:41:84:1b:7f:b0:6f:ca:fa:db:35:a4:02:33:9f:
         a8:90:93:bc:51:58:5f:27:da:47:5a:b6:aa:75:ce:f0:90:70:
         c3:f5:79:fb:15:a6:26:3a:8f:bf:6d:03:ee:2f:81:f1:ee:cf:
         82:c0:09:07:74:25:8a:db:6c:48:d9:5c:20:bc:b5:73:ea:39:
         94:16:9d:d0:17:57:0a:67:e7:f2:76:c9:a5:b4:63:cb:58:3d:
         79:c5:5b:3f:ec:b7:e2:2d:5e:03:e3:db:4f:7d:c7:33:00:e8:
         0a:78:58:bf:ea:ed:3f:e1:d6:eb:3b:87:26:b3:51:0a:1f:66:
         f5:3a:72:b2:8b:ec:b2:d2:90:62:04:03:4c:f1:bc:77:5a:af:
         5d:9e:cb:2d:df:2c:f4:ae:64:eb:f2:6e:50:0f:9b:d8:1f:02:
         5d:6a:c4:9a:bf:c8:29:45:b1:2b:14:a1:5a:a5:51:72:a2:42:
         31:f2:1e:f1:9f:36:43:0c:4f:1a:fb:dc:fe:70:7e:c5:1b:c3:
         9b:75:6a:35:a6:a5:c1:05
-----BEGIN CERTIFICATE-----
MIIGgTCCBGmgAwIBAgIQNbruzTWSABAwqEoOmvTbOzANBgkqhkiG9w0BAQsFADAv
MQswCQYDVQQGEwJDTjEOMAwGA1UECgwFb3J6cnoxEDAOBgNVBAMMB1Jvb3QgQ0Ew
HhcNMjExMTMwMTIzNjM4WhcNMzExMTI4MTIzNjM4WjAuMQswCQYDVQQGEwJDTjEO
MAwGA1UECgwFb3J6cnoxDzANBgNVBAMMBlN1YiBDQTCCAiIwDQYJKoZIhvcNAQEB
BQADggIPADCCAgoCggIBAMnnUm4lHAE0cNa26O0/CHpoZNzLyU1Mcb3PSM5+d5Ih
tQ5E55/g5HGtyl4m6j8/mZfVWjoP6pgqProO81+P/KxidQLnifxQVl3JDjNHskbg
N3c1useQaXEXIatpOgl7/YjVevsaUeCvC50nQFPnIyVu0tvZLtSaYLM7WupPkD4p
8tAgazX+hvcnljALygrkEbuzK+3eaJMC/LxGSGvjGJscoWQnKdmdlxxPw1aGsaqN
qbPRYbACJf5M/LKrgLv+kBGYLBUchLOUSGGmnquaPv/PGsZidH+LqggHnWbRV0vY
mGMgtNA9Up9h36Znvr28Te6LEBb0nAzRH8spvWquUktcAMwQFG2dZLy+M1Hg36KE
pkKcmVU1XunJjjjToB4dhRj0eJCffRgL58XjXqHkzdINad8QwLQvpmABeaN7xFOn
V3aJgWxXzrbWT3556rqiduPACkwjyeK+QdJ7qVcH3V/koTaPbW92lK4kTrkqebo+
1puWqUYo0ZFd7ogg1hwQkzTFBuRd4WFxGai+zDdMVjBepid9Ut1TPLf0U2juRH+T
PTHS1vxvUDxjpC1SyMja887TKv4+71PDm2FZtUg12zl1dYE1z+SuVO1mpp1ODSL/
T/kSb38UFloNFzPj2SOR7W4PXFYi9Q4fxbPRtS+rARgwzHQJrJg4jt3a4GmRGScf
AgMBAAGjggGYMIIBlDB5BggrBgEFBQcBAQRtMGswNgYIKwYBBQUHMAKGKmh0dHA6
Ly9yc2Etc3ViLWNhLm9yenJ6LmNvbS9yc2Etc3ViLWNhLmNydDAxBggrBgEFBQcw
AYYlaHR0cDovL29jc3AucnNhLXN1Yi1jYS5vcnpyei5jb206OTA4MTAfBgNVHSME
GDAWgBQbfTgVlP8senHGbIwtbpHZ6TQS5zASBgNVHRMBAf8ECDAGAQH/AgEAMDsG
A1UdHwQ0MDIwMKAuoCyGKmh0dHA6Ly9yc2Etc3ViLWNhLm9yenJ6LmNvbS9yc2Et
c3ViLWNhLmNybDAdBgNVHSUEFjAUBggrBgEFBQcDAgYIKwYBBQUHAwEwDgYDVR0P
AQH/BAQDAgEGMFcGA1UdHgRQME6gGjALgglvcnpyei5jb20wC4IJb3J6cnoub3Jn
oTAwCocIAAAAAAAAAAAwIocgAAAAAAAAAAAAAAAAAAAAAAAAAAAAAAAAAAAAAAAA
AAAwHQYDVR0OBBYEFIienGfHBi9cOsgAr7K7sx1In8MJMA0GCSqGSIb3DQEBCwUA
A4ICAQBMqbA3tUqWLQVlI1b4pZzU0uVUqnuVTVq3cKyD1p77dgtmqZOxqtPeXvYw
UGUSjxwXAQ5ZjIq+IpaYRfkuZfQrRZfntUc19toL9vnbjjtqhsYo8QxIALDQt66c
/HaIUjHSFw9ym4LOgIUU6DCBdjBjNV11b6t9MW+kxRspfo2LkPqRjEADlbc5MtGc
o/Y0xW5jjLZ+I+DXzDto11+mWlQfxLtQ6cM40q2QGz/hbbwSYNxxSFJmi8zHPve5
H8BYGcSRRSnFgoIGR0QZdzsoZDUJkRKTlKq7iNeyb28HAIkHkHmhk67nVMgkzy8F
2ucL4gcXermR+IU2TguQ+C/T7ApA7H4+1QtNaCTLJDitpHw/i3JI4awUifwmWyTY
hL6hxCugQpMuSzFxxb0fJ1b6bWygyEzT7KyoQYQbf7BvyvrbNaQCM5+okJO8UVhf
J9pHWraqdc7wkHDD9Xn7FaYmOo+/bQPuL4Hx7s+CwAkHdCWK22xI2VwgvLVz6jmU
Fp3QF1cKZ+fydsmltGPLWD15xVs/7LfiLV4D49tPfcczAOgKeFi/6u0/4dbrO4cm
s1EKH2b1OnKyi+yy0pBiBANM8bx3Wq9dnsst3yz0rmTr8m5QD5vYHwJdasSav8gp
RbErFKFapVFyokIx8h7xnzZDDE8a+9z+cH7FG8ObdWo1pqXBBQ==
-----END CERTIFICATE-----
