Certificate:
    Data:
        Version: 3 (0x2)
        Serial Number:
            35:ba:ee:cd:35:92:00:10:30:a8:4a:0e:9a:f4:db:3c
    Signature Algorithm: sha256WithRSAEncryption
        Issuer: C=CN, O=orzrz, CN=Root CA
        Validity
            Not Before: Dec  1 02:37:48 2021 GMT
            Not After : Nov 29 02:37:48 2031 GMT
        Subject: C=CN, ST=Some-State, O=orzrz, CN=example.com
        Subject Public Key Info:
            Public Key Algorithm: rsaEncryption
                Public-Key: (2048 bit)
                Modulus:
                    00:b6:b5:9f:67:5c:93:af:e5:49:c9:42:09:0f:a3:
                    ca:00:20:8e:05:40:a0:75:c1:84:b6:fd:0b:de:b3:
                    6b:12:9a:b5:94:0d:e5:4a:fa:d3:7f:6c:20:98:64:
                    8a:32:fb:9a:02:77:da:a2:eb:f5:f5:f0:08:85:e7:
                    7d:3f:57:de:2c:fc:6e:38:7a:8a:00:f1:0c:f5:d0:
                    54:a4:a7:9c:9c:e8:97:fa:82:7f:b2:57:b3:4f:83:
                    32:43:60:ef:55:99:d6:a7:85:43:ed:47:02:74:ed:
                    d3:7e:25:0e:61:c1:52:04:28:12:76:a6:0a:7e:16:
                    c3:0f:d6:03:f2:8d:37:d8:1f:2f:1a:81:5c:ef:37:
                    51:8f:a4:25:c5:fa:84:0a:56:34:55:0f:ec:2c:87:
                    79:a5:36:8d:60:ef:21:3d:cf:5d:8c:31:c0:0f:b4:
                    f0:e5:81:4c:df:f2:da:c1:30:fc:3e:14:91:a6:4e:
                    9b:21:70:cb:cd:db:33:b9:00:91:b6:fc:07:95:e5:
                    d2:7b:1e:39:b4:dd:f9:e5:ec:d7:73:95:d1:84:ac:
                    7a:54:e6:4f:45:78:00:19:22:4e:d6:20:aa:67:cf:
                    7a:ca:e8:fa:5e:ce:4f:33:ec:99:95:a4:2c:e4:a9:
                    56:0f:02:1c:e7:55:d7:de:12:4e:ae:8a:a9:e1:d1:
                    69:3d
                Exponent: 65537 (0x10001)
        X509v3 extensions:
            Authority Information Access: 
                CA Issuers - URI:http://rsa-sub-ca.orzrz.com/rsa-sub-ca.crt
                OCSP - URI:http://ocsp.rsa-sub-ca.orzrz.com:9081

            X509v3 Authority Key Identifier: 
                keyid:1B:7D:38:15:94:FF:2C:7A:71:C6:6C:8C:2D:6E:91:D9:E9:34:12:E7

            X509v3 Basic Constraints: critical
                CA:FALSE
            X509v3 CRL Distribution Points: 

                Full Name:
                  URI:http://rsa-sub-ca.orzrz.com/rsa-sub-ca.crl

            X509v3 Extended Key Usage: 
                TLS Web Client Authentication, TLS Web Server Authentication
            X509v3 Key Usage: critical
                Digital Signature, Key Encipherment
            X509v3 Subject Key Identifier: 
                1D:60:43:E0:BC:DA:48:64:70:86:9F:A0:DA:69:B1:B2:92:F4:BA:C8
    Signature Algorithm: sha256WithRSAEncryption
         a4:40:bd:e9:b4:ac:c4:6e:d7:ae:b3:fe:08:d1:1f:f3:9a:af:
         45:77:9e:a3:f6:06:b0:25:c3:16:4b:19:a5:c3:f0:4c:0a:69:
         a4:f6:15:b2:01:09:d2:7c:85:4e:4d:b1:bf:7e:b4:06:b6:65:
         03:a4:69:de:85:56:3b:7a:f3:f8:30:64:89:eb:11:44:2e:84:
         db:a4:64:44:9d:8a:7d:ee:d3:dc:f5:2c:54:95:5c:d7:e7:4f:
         0f:f7:09:d2:06:34:aa:7c:aa:ab:9e:83:cd:32:ea:07:2d:c8:
         99:26:48:ec:52:06:bc:0a:3f:48:51:8b:7d:52:5c:8d:e2:4a:
         e6:f3:a8:f3:b4:63:bd:ba:46:b4:01:7d:6a:80:0d:bd:aa:49:
         2f:76:f8:d2:da:e7:57:41:f3:23:ea:dd:1d:dc:18:71:c8:8e:
         68:de:7f:11:9e:34:6f:71:31:c5:7d:e0:a2:af:8b:6b:f0:04:
         b2:92:2b:c3:12:1a:e9:1a:46:a9:28:c5:5f:b2:4b:10:7b:0c:
         d0:62:b1:11:1a:da:26:ed:8e:75:5f:6c:d2:bd:24:00:21:70:
         15:8c:d9:bf:ea:fa:2b:da:14:ab:db:23:10:13:50:59:36:6a:
         47:f7:87:73:b1:65:16:ec:9a:2b:db:d8:5a:48:25:bd:db:56:
         c5:64:c0:b9:5f:14:54:b0:6b:6d:88:6d:5c:97:64:c7:11:fe:
         d8:05:f3:8d:6d:dd:95:36:64:bc:d0:fb:fa:f5:b2:15:fc:13:
         f6:5e:08:67:c5:17:21:e5:81:f5:ff:03:a2:dc:88:ec:63:d3:
         1d:12:67:d7:39:b8:ba:43:3f:36:9e:6e:c2:89:c4:1c:c7:0c:
         74:b2:73:5b:54:4c:38:9b:be:37:1e:92:68:8a:69:c3:83:60:
         9e:35:b7:ad:f1:8f:48:bd:d1:43:d3:4c:ed:0e:d8:76:39:76:
         52:ba:29:ee:3c:85:af:1d:97:eb:a2:a2:48:3a:d3:0d:e7:13:
         95:27:f7:f1:a1:57:20:eb:64:f0:ae:47:15:af:b1:e4:1c:f6:
         67:d9:c2:e9:ca:8d:4f:42:35:9e:50:51:8f:29:4d:32:9a:e5:
         fb:a1:52:b8:96:bf:a3:85:82:75:8d:96:44:7b:8d:94:c9:1b:
         42:a9:97:6b:b4:36:b2:d0:c6:c7:2f:e0:0b:0c:65:65:7f:56:
         1e:d5:5f:c7:fe:f4:55:fd:37:8a:b4:53:91:0a:57:d9:bf:07:
         3b:dc:17:e5:d5:a6:45:21:f9:11:86:29:b9:e6:cd:3d:d5:81:
         d0:57:18:d6:69:41:13:d9:00:6a:7f:e3:f5:ca:04:e9:12:d5:
         13:aa:53:d4:a4:97:f1:e3
-----BEGIN CERTIFICATE-----
MIIFPDCCAySgAwIBAgIQNbruzTWSABAwqEoOmvTbPDANBgkqhkiG9w0BAQsFADAv
MQswCQYDVQQGEwJDTjEOMAwGA1UECgwFb3J6cnoxEDAOBgNVBAMMB1Jvb3QgQ0Ew
HhcNMjExMjAxMDIzNzQ4WhcNMzExMTI5MDIzNzQ4WjBIMQswCQYDVQQGEwJDTjET
MBEGA1UECAwKU29tZS1TdGF0ZTEOMAwGA1UECgwFb3J6cnoxFDASBgNVBAMMC2V4
YW1wbGUuY29tMIIBIjANBgkqhkiG9w0BAQEFAAOCAQ8AMIIBCgKCAQEAtrWfZ1yT
r+VJyUIJD6PKACCOBUCgdcGEtv0L3rNrEpq1lA3lSvrTf2wgmGSKMvuaAnfaouv1
9fAIhed9P1feLPxuOHqKAPEM9dBUpKecnOiX+oJ/slezT4MyQ2DvVZnWp4VD7UcC
dO3TfiUOYcFSBCgSdqYKfhbDD9YD8o032B8vGoFc7zdRj6QlxfqEClY0VQ/sLId5
pTaNYO8hPc9djDHAD7Tw5YFM3/LawTD8PhSRpk6bIXDLzdszuQCRtvwHleXSex45
tN355ezXc5XRhKx6VOZPRXgAGSJO1iCqZ896yuj6Xs5PM+yZlaQs5KlWDwIc51XX
3hJOroqp4dFpPQIDAQABo4IBOTCCATUweQYIKwYBBQUHAQEEbTBrMDYGCCsGAQUF
BzAChipodHRwOi8vcnNhLXN1Yi1jYS5vcnpyei5jb20vcnNhLXN1Yi1jYS5jcnQw
MQYIKwYBBQUHMAGGJWh0dHA6Ly9vY3NwLnJzYS1zdWItY2Eub3J6cnouY29tOjkw
ODEwHwYDVR0jBBgwFoAUG304FZT/LHpxxmyMLW6R2ek0EucwDAYDVR0TAQH/BAIw
ADA7BgNVHR8ENDAyMDCgLqAshipodHRwOi8vcnNhLXN1Yi1jYS5vcnpyei5jb20v
cnNhLXN1Yi1jYS5jcmwwHQYDVR0lBBYwFAYIKwYBBQUHAwIGCCsGAQUFBwMBMA4G
A1UdDwEB/wQEAwIFoDAdBgNVHQ4EFgQUHWBD4LzaSGRwhp+g2mmxspL0usgwDQYJ
KoZIhvcNAQELBQADggIBAKRAvem0rMRu166z/gjRH/Oar0V3nqP2BrAlwxZLGaXD
8EwKaaT2FbIBCdJ8hU5Nsb9+tAa2ZQOkad6FVjt68/gwZInrEUQuhNukZESdin3u
09z1LFSVXNfnTw/3CdIGNKp8qqueg80y6gctyJkmSOxSBrwKP0hRi31SXI3iSubz
qPO0Y726RrQBfWqADb2qSS92+NLa51dB8yPq3R3cGHHIjmjefxGeNG9xMcV94KKv
i2vwBLKSK8MSGukaRqkoxV+ySxB7DNBisREa2ibtjnVfbNK9JAAhcBWM2b/q+iva
FKvbIxATUFk2akf3h3OxZRbsmivb2FpIJb3bVsVkwLlfFFSwa22IbVyXZMcR/tgF
841t3ZU2ZLzQ+/r1shX8E/ZeCGfFFyHlgfX/A6LciOxj0x0SZ9c5uLpDPzaebsKJ
xBzHDHSyc1tUTDibvjcekmiKacODYJ41t63xj0i90UPTTO0O2HY5dlK6Ke48ha8d
l+uiokg60w3nE5Un9/GhVyDrZPCuRxWvseQc9mfZwunKjU9CNZ5QUY8pTTKa5fuh
UriWv6OFgnWNlkR7jZTJG0Kpl2u0NrLQxscv4AsMZWV/Vh7VX8f+9FX9N4q0U5EK
V9m/BzvcF+XVpkUh+RGGKbnmzT3VgdBXGNZpQRPZAGp/4/XKBOkS1ROqU9Skl/Hj
-----END CERTIFICATE-----
