Certificate:
    Data:
        Version: 3 (0x2)
        Serial Number:
            35:ba:ee:cd:35:92:00:10:30:a8:4a:0e:9a:f4:db:3a
    Signature Algorithm: sha256WithRSAEncryption
        Issuer: C=CN, O=orzrz, CN=Root CA
        Validity
            Not Before: Nov 30 12:36:18 2021 GMT
            Not After : Nov 28 12:36:18 2031 GMT
        Subject: C=CN, O=orzrz, CN=Root CA
        Subject Public Key Info:
            Public Key Algorithm: rsaEncryption
                Public-Key: (4096 bit)
                Modulus:
                    00:d0:be:a3:48:1e:e9:f8:bb:05:2a:5c:c9:5a:38:
                    bf:84:bc:20:9b:28:ab:b7:57:37:50:d6:fb:e5:f6:
                    d2:fc:c6:04:ac:0f:fe:ed:37:ac:da:2d:cb:e7:a8:
                    4e:1c:cc:83:a6:9d:e0:bb:bf:9a:7e:12:6f:15:d4:
                    dd:1c:d4:a9:b9:9c:1f:ae:71:c9:89:ae:20:2f:a2:
                    66:27:d8:bd:24:1f:8a:ef:8e:59:53:77:c5:59:7b:
                    7e:1f:7d:0b:ca:a1:2a:e4:d1:e4:e4:b2:90:f4:59:
                    c2:a3:aa:54:29:b4:f2:11:05:18:da:7a:c5:27:3b:
                    0a:b4:e1:9d:68:a9:b4:50:c6:fa:ce:ac:ba:b6:24:
                    72:b0:99:12:9a:2f:79:90:3f:ca:9c:71:22:30:53:
                    28:86:54:82:bd:a4:6b:9f:b6:27:4d:50:df:4f:eb:
                    9c:01:9e:01:fb:c9:95:86:9b:7c:f0:0a:69:5e:fc:
                    58:f4:83:d5:3e:cc:aa:5e:bf:77:23:6a:b1:90:ad:
                    f9:9e:fa:3b:1f:60:9f:87:01:63:92:4c:92:75:ec:
                    e9:bd:21:89:7e:67:ad:c2:6e:e3:0d:09:24:a8:3a:
                    50:d2:2c:46:8b:0f:96:8f:93:18:16:04:0a:36:c9:
                    95:ff:dc:00:85:3f:15:cd:b9:6a:61:42:96:70:7c:
                    82:8f:04:0a:32:25:88:43:8b:82:28:dc:27:d8:90:
                    96:f3:46:a7:d0:90:c3:eb:70:14:71:00:ce:26:e1:
                    8a:92:65:a6:6c:89:e2:84:36:c2:4d:e2:51:40:2e:
                    fd:f7:cb:1c:60:c8:30:c1:bb:4a:f2:b6:c8:c9:79:
                    7b:b0:ea:9d:34:74:d4:6d:7b:10:24:51:5a:06:79:
                    22:94:68:24:52:b4:93:52:1a:3d:9f:ed:68:8c:5a:
                    a0:e4:a2:5a:ed:c6:0a:01:18:3c:63:98:6b:c2:e8:
                    95:e2:3c:9d:20:96:ce:bb:af:4c:aa:c1:a2:db:97:
                    3e:90:ba:70:18:61:21:fb:bf:47:e0:17:e0:23:9c:
                    bf:5f:66:65:d8:52:b2:e5:f6:00:c5:e9:f4:61:90:
                    da:e6:f5:7d:51:ff:81:69:40:04:52:bc:17:8b:b6:
                    c4:ac:bf:72:38:53:ed:f7:7a:c5:98:02:83:54:30:
                    9a:ed:c6:e0:bb:aa:c1:05:72:c3:98:e6:36:2c:b6:
                    f1:fc:7b:04:e2:e3:94:cb:2d:a0:0f:72:23:1e:1c:
                    ed:4d:4e:94:7d:f0:cd:2e:46:2d:ac:43:50:28:64:
                    29:f7:bc:62:32:fd:44:77:ef:64:fe:c2:a8:8d:08:
                    1a:84:dd:3c:ff:b1:ff:f3:c4:21:a8:4a:93:ce:78:
                    97:a8:2b
                Exponent: 65537 (0x10001)
        X509v3 extensions:
            X509v3 Basic Constraints: critical
                CA:TRUE
            X509v3 Key Usage: critical
                Certificate Sign, CRL Sign
            X509v3 Subject Key Identifier: 
                1B:7D:38:15:94:FF:2C:7A:71:C6:6C:8C:2D:6E:91:D9:E9:34:12:E7
    Signature Algorithm: sha256WithRSAEncryption
         c2:90:3b:7e:61:95:13:f4:51:cc:b4:b0:a7:7c:6c:6e:cf:7c:
         43:fa:b5:13:d3:b4:d7:f4:1f:f0:e4:d4:dd:86:0f:b6:11:f9:
         48:30:ad:20:a1:26:bc:8f:a6:95:c2:47:9c:12:88:f8:30:ea:
         92:c4:c5:d5:d8:dc:98:7f:43:0e:9e:fb:fc:4f:25:96:98:22:
         e4:ab:a0:9b:5c:ec:dc:d3:57:80:dc:f5:9e:67:03:25:10:e3:
         f2:2a:53:e6:6c:78:89:dc:b0:0a:b2:7a:cb:7b:69:c9:49:92:
         f1:25:e6:ec:95:05:f4:63:35:8c:65:02:19:32:19:55:2d:a0:
         15:8a:4e:2a:44:e7:2f:3c:cb:ce:92:05:75:68:64:d6:b0:3b:
         ce:0c:c3:2a:9c:39:32:ca:a3:5f:92:c5:07:61:b8:2e:3b:8d:
         7f:c8:bf:a5:8c:db:a4:7a:f1:46:dc:49:5a:ee:2c:f3:80:8e:
         a1:1a:81:ff:ee:65:6a:37:42:de:17:b5:7d:a0:85:04:8e:18:
         e0:b2:e8:ab:c4:b2:4d:5f:6a:6d:78:16:47:04:d6:0a:17:32:
         76:aa:6f:75:aa:07:1a:2e:e9:ad:2f:42:a3:69:0d:45:de:68:
         96:98:b9:3e:43:96:82:f5:3d:25:df:21:f3:22:fb:21:66:30:
         5b:0d:8c:1a:81:5c:eb:e8:de:18:f7:46:4f:3b:6f:1f:ca:61:
         ba:d0:68:b1:2c:4c:af:b6:86:ad:08:95:ec:11:44:46:fc:40:
         56:f4:a1:a0:cd:83:cb:81:b0:f6:2c:1f:56:8f:d8:dc:0b:cc:
         b1:70:1f:cb:4e:65:e6:87:8c:b2:d7:95:6d:f6:9e:41:53:dc:
         e9:cf:c9:91:a6:69:b7:0e:21:55:28:df:5f:09:aa:13:00:f9:
         41:1c:41:bc:e6:c2:3e:ae:8c:3a:39:95:f8:10:f3:4a:f0:39:
         53:40:b8:f6:55:a1:88:42:f9:40:12:8d:00:b4:8d:db:90:b1:
         c5:04:34:f9:75:00:16:8a:9a:e4:22:69:2b:85:f8:0c:f1:e5:
         ca:33:19:08:58:bc:03:70:b0:0d:89:f4:ca:af:4f:a7:55:96:
         c1:fe:69:7d:63:8f:70:b2:2f:be:01:a3:41:28:68:2c:e2:97:
         d1:e6:ef:70:83:c9:37:51:29:31:89:c4:4e:24:fa:e8:54:15:
         99:d1:cb:9c:4b:c5:a8:09:07:6b:cd:2f:52:ee:18:9b:88:ca:
         6e:af:7c:60:e9:49:c0:a4:ef:e3:30:ed:db:1e:bd:68:1c:86:
         ee:e3:c0:4a:38:2b:84:58:02:14:7a:04:c2:b5:fb:6a:d3:5b:
         62:db:c0:e5:ec:31:84:c5
-----BEGIN CERTIFICATE-----
MIIFKjCCAxKgAwIBAgIQNbruzTWSABAwqEoOmvTbOjANBgkqhkiG9w0BAQsFADAv
MQswCQYDVQQGEwJDTjEOMAwGA1UECgwFb3J6cnoxEDAOBgNVBAMMB1Jvb3QgQ0Ew
HhcNMjExMTMwMTIzNjE4WhcNMzExMTI4MTIzNjE4WjAvMQswCQYDVQQGEwJDTjEO
MAwGA1UECgwFb3J6cnoxEDAOBgNVBAMMB1Jvb3QgQ0EwggIiMA0GCSqGSIb3DQEB
AQUAA4ICDwAwggIKAoICAQDQvqNIHun4uwUqXMlaOL+EvCCbKKu3VzdQ1vvl9tL8
xgSsD/7tN6zaLcvnqE4czIOmneC7v5p+Em8V1N0c1Km5nB+uccmJriAvomYn2L0k
H4rvjllTd8VZe34ffQvKoSrk0eTkspD0WcKjqlQptPIRBRjaesUnOwq04Z1oqbRQ
xvrOrLq2JHKwmRKaL3mQP8qccSIwUyiGVIK9pGuftidNUN9P65wBngH7yZWGm3zw
Cmle/Fj0g9U+zKpev3cjarGQrfme+jsfYJ+HAWOSTJJ17Om9IYl+Z63CbuMNCSSo
OlDSLEaLD5aPkxgWBAo2yZX/3ACFPxXNuWphQpZwfIKPBAoyJYhDi4Io3CfYkJbz
RqfQkMPrcBRxAM4m4YqSZaZsieKENsJN4lFALv33yxxgyDDBu0rytsjJeXuw6p00
dNRtexAkUVoGeSKUaCRStJNSGj2f7WiMWqDkolrtxgoBGDxjmGvC6JXiPJ0gls67
r0yqwaLblz6QunAYYSH7v0fgF+AjnL9fZmXYUrLl9gDF6fRhkNrm9X1R/4FpQARS
vBeLtsSsv3I4U+33esWYAoNUMJrtxuC7qsEFcsOY5jYstvH8ewTi45TLLaAPciMe
HO1NTpR98M0uRi2sQ1AoZCn3vGIy/UR372T+wqiNCBqE3Tz/sf/zxCGoSpPOeJeo
KwIDAQABo0IwQDAPBgNVHRMBAf8EBTADAQH/MA4GA1UdDwEB/wQEAwIBBjAdBgNV
HQ4EFgQUG304FZT/LHpxxmyMLW6R2ek0EucwDQYJKoZIhvcNAQELBQADggIBAMKQ
O35hlRP0Ucy0sKd8bG7PfEP6tRPTtNf0H/Dk1N2GD7YR+UgwrSChJryPppXCR5wS
iPgw6pLExdXY3Jh/Qw6e+/xPJZaYIuSroJtc7NzTV4Dc9Z5nAyUQ4/IqU+ZseInc
sAqyest7aclJkvEl5uyVBfRjNYxlAhkyGVUtoBWKTipE5y88y86SBXVoZNawO84M
wyqcOTLKo1+SxQdhuC47jX/Iv6WM26R68UbcSVruLPOAjqEagf/uZWo3Qt4XtX2g
hQSOGOCy6KvEsk1fam14FkcE1goXMnaqb3WqBxou6a0vQqNpDUXeaJaYuT5DloL1
PSXfIfMi+yFmMFsNjBqBXOvo3hj3Rk87bx/KYbrQaLEsTK+2hq0IlewRREb8QFb0
oaDNg8uBsPYsH1aP2NwLzLFwH8tOZeaHjLLXlW32nkFT3OnPyZGmabcOIVUo318J
qhMA+UEcQbzmwj6ujDo5lfgQ80rwOVNAuPZVoYhC+UASjQC0jduQscUENPl1ABaK
muQiaSuF+Azx5cozGQhYvANwsA2J9MqvT6dVlsH+aX1jj3CyL74Bo0EoaCzil9Hm
73CDyTdRKTGJxE4k+uhUFZnRy5xLxagJB2vNL1LuGJuIym6vfGDpScCk7+Mw7dse
vWgchu7jwEo4K4RYAhR6BMK1+2rTW2LbwOXsMYTF
-----END CERTIFICATE-----
