Certificate:
    Data:
        Version: 3 (0x2)
        Serial Number:
            37:7e:5a:78:6a:02:27:f5:0d:64:f6:44:af:6e:66:13
    Signature Algorithm: ecdsa-with-SHA256
        Issuer: C=CN, O=orzrz, CN=Root CA
        Validity
            Not Before: Dec  1 07:06:30 2021 GMT
            Not After : Nov 29 07:06:30 2031 GMT
        Subject: C=CN, O=orzrz, CN=example/emailAddress=test@orzrz.com
        Subject Public Key Info:
            Public Key Algorithm: id-ecPublicKey
                Public-Key: (256 bit)
                pub: 
                    04:53:56:5c:0a:1d:7e:53:d7:e2:26:8e:21:87:f7:
                    41:3f:66:a8:36:5d:bf:91:af:68:55:fd:03:45:ce:
                    85:6b:29:6c:01:7a:31:9d:2e:6a:fc:ec:10:e5:d4:
                    74:92:91:02:2b:b6:a2:b1:c5:6f:c8:f1:9b:9b:85:
                    5e:6f:00:a0:1b
                Field Type: prime-field
                Prime:
                    00:ff:ff:ff:ff:00:00:00:01:00:00:00:00:00:00:
                    00:00:00:00:00:00:ff:ff:ff:ff:ff:ff:ff:ff:ff:
                    ff:ff:ff
                A:   
                    00:ff:ff:ff:ff:00:00:00:01:00:00:00:00:00:00:
                    00:00:00:00:00:00:ff:ff:ff:ff:ff:ff:ff:ff:ff:
                    ff:ff:fc
                B:   
                    5a:c6:35:d8:aa:3a:93:e7:b3:eb:bd:55:76:98:86:
                    bc:65:1d:06:b0:cc:53:b0:f6:3b:ce:3c:3e:27:d2:
                    60:4b
                Generator (uncompressed):
                    04:6b:17:d1:f2:e1:2c:42:47:f8:bc:e6:e5:63:a4:
                    40:f2:77:03:7d:81:2d:eb:33:a0:f4:a1:39:45:d8:
                    98:c2:96:4f:e3:42:e2:fe:1a:7f:9b:8e:e7:eb:4a:
                    7c:0f:9e:16:2b:ce:33:57:6b:31:5e:ce:cb:b6:40:
                    68:37:bf:51:f5
                Order: 
                    00:ff:ff:ff:ff:00:00:00:00:ff:ff:ff:ff:ff:ff:
                    ff:ff:bc:e6:fa:ad:a7:17:9e:84:f3:b9:ca:c2:fc:
                    63:25:51
                Cofactor:  1 (0x1)
                Seed:
                    c4:9d:36:08:86:e7:04:93:6a:66:78:e1:13:9d:26:
                    b7:81:9f:7e:90
        X509v3 extensions:
            Authority Information Access: 
                CA Issuers - URI:http://ec-sub-ca.orzrz.com/ec-sub-ca.crt
                OCSP - URI:http://ocsp.ec-sub-ca.orzrz.com:9081

            X509v3 Authority Key Identifier: 
                keyid:49:14:22:2A:C4:03:DE:3A:66:93:C3:6E:18:0E:C4:06:C8:58:10:2D

            X509v3 Basic Constraints: critical
                CA:FALSE
            X509v3 CRL Distribution Points: 

                Full Name:
                  URI:http://ec-sub-ca.orzrz.com/ec-sub-ca.crl

            X509v3 Extended Key Usage: 
                TLS Web Client Authentication, TLS Web Server Authentication
            X509v3 Key Usage: critical
                Digital Signature, Key Encipherment
            X509v3 Subject Key Identifier: 
                E2:24:82:2B:E6:67:8D:9F:CB:D0:62:BB:78:1C:4D:4E:49:40:22:5B
    Signature Algorithm: ecdsa-with-SHA256
         30:45:02:21:00:bb:83:f3:da:b4:9d:a7:79:08:48:fe:77:fd:
         d0:4b:65:a4:60:27:17:53:01:70:93:d8:26:ea:d3:39:8b:d2:
         00:02:20:5e:92:bd:43:54:c5:7e:05:4a:ac:0e:b5:0e:b4:6a:
         86:4f:a8:f4:0e:e4:56:a9:bf:5c:d8:fb:18:11:ad:a5:dc
-----BEGIN CERTIFICATE-----
MIIDpTCCA0ugAwIBAgIQN35aeGoCJ/UNZPZEr25mEzAKBggqhkjOPQQDAjAvMQsw
CQYDVQQGEwJDTjEOMAwGA1UECgwFb3J6cnoxEDAOBgNVBAMMB1Jvb3QgQ0EwHhcN
MjExMjAxMDcwNjMwWhcNMzExMTI5MDcwNjMwWjBOMQswCQYDVQQGEwJDTjEOMAwG
A1UECgwFb3J6cnoxEDAOBgNVBAMMB2V4YW1wbGUxHTAbBgkqhkiG9w0BCQEWDnRl
c3RAb3J6cnouY29tMIIBSzCCAQMGByqGSM49AgEwgfcCAQEwLAYHKoZIzj0BAQIh
AP////8AAAABAAAAAAAAAAAAAAAA////////////////MFsEIP////8AAAABAAAA
AAAAAAAAAAAA///////////////8BCBaxjXYqjqT57PrvVV2mIa8ZR0GsMxTsPY7
zjw+J9JgSwMVAMSdNgiG5wSTamZ44ROdJreBn36QBEEEaxfR8uEsQkf4vOblY6RA
8ncDfYEt6zOg9KE5RdiYwpZP40Li/hp/m47n60p8D54WK84zV2sxXs7LtkBoN79R
9QIhAP////8AAAAA//////////+85vqtpxeehPO5ysL8YyVRAgEBA0IABFNWXAod
flPX4iaOIYf3QT9mqDZdv5GvaFX9A0XOhWspbAF6MZ0uavzsEOXUdJKRAiu2orHF
b8jxm5uFXm8AoBujggE0MIIBMDB2BggrBgEFBQcBAQRqMGgwNAYIKwYBBQUHMAKG
KGh0dHA6Ly9lYy1zdWItY2Eub3J6cnouY29tL2VjLXN1Yi1jYS5jcnQwMAYIKwYB
BQUHMAGGJGh0dHA6Ly9vY3NwLmVjLXN1Yi1jYS5vcnpyei5jb206OTA4MTAfBgNV
HSMEGDAWgBRJFCIqxAPeOmaTw24YDsQGyFgQLTAMBgNVHRMBAf8EAjAAMDkGA1Ud
HwQyMDAwLqAsoCqGKGh0dHA6Ly9lYy1zdWItY2Eub3J6cnouY29tL2VjLXN1Yi1j
YS5jcmwwHQYDVR0lBBYwFAYIKwYBBQUHAwIGCCsGAQUFBwMBMA4GA1UdDwEB/wQE
AwIFoDAdBgNVHQ4EFgQU4iSCK+ZnjZ/L0GK7eBxNTklAIlswCgYIKoZIzj0EAwID
SAAwRQIhALuD89q0nad5CEj+d/3QS2WkYCcXUwFwk9gm6tM5i9IAAiBekr1DVMV+
BUqsDrUOtGqGT6j0DuRWqb9c2PsYEa2l3A==
-----END CERTIFICATE-----
